	.text
	.file	"main.7rcbfp3g-cgu.0"
	.section	".text._ZN102_$LT$core..iter..adapters..zip..Zip$LT$A$C$B$GT$$u20$as$u20$core..iter..traits..iterator..Iterator$GT$4next17h65598ba248c8813fE","ax",@progbits
	.p2align	4, 0x90
	.type	_ZN102_$LT$core..iter..adapters..zip..Zip$LT$A$C$B$GT$$u20$as$u20$core..iter..traits..iterator..Iterator$GT$4next17h65598ba248c8813fE,@function
_ZN102_$LT$core..iter..adapters..zip..Zip$LT$A$C$B$GT$$u20$as$u20$core..iter..traits..iterator..Iterator$GT$4next17h65598ba248c8813fE:
	.cfi_startproc
	subq	$24, %rsp
	.cfi_def_cfa_offset 32
	callq	_ZN111_$LT$core..iter..adapters..zip..Zip$LT$A$C$B$GT$$u20$as$u20$core..iter..adapters..zip..ZipImpl$LT$A$C$B$GT$$GT$4next17h79d396b17b78166cE
	movq	%rax, 16(%rsp)
	movq	%rdx, 8(%rsp)
	movq	16(%rsp), %rax
	movq	8(%rsp), %rdx
	addq	$24, %rsp
	.cfi_def_cfa_offset 8
	retq
.Lfunc_end0:
	.size	_ZN102_$LT$core..iter..adapters..zip..Zip$LT$A$C$B$GT$$u20$as$u20$core..iter..traits..iterator..Iterator$GT$4next17h65598ba248c8813fE, .Lfunc_end0-_ZN102_$LT$core..iter..adapters..zip..Zip$LT$A$C$B$GT$$u20$as$u20$core..iter..traits..iterator..Iterator$GT$4next17h65598ba248c8813fE
	.cfi_endproc

	.section	".text._ZN109_$LT$alloc..vec..Vec$LT$T$GT$$u20$as$u20$alloc..vec..SpecExtend$LT$$RF$T$C$core..slice..Iter$LT$T$GT$$GT$$GT$11spec_extend17hc44d851385de3327E","ax",@progbits
	.p2align	4, 0x90
	.type	_ZN109_$LT$alloc..vec..Vec$LT$T$GT$$u20$as$u20$alloc..vec..SpecExtend$LT$$RF$T$C$core..slice..Iter$LT$T$GT$$GT$$GT$11spec_extend17hc44d851385de3327E,@function
_ZN109_$LT$alloc..vec..Vec$LT$T$GT$$u20$as$u20$alloc..vec..SpecExtend$LT$$RF$T$C$core..slice..Iter$LT$T$GT$$GT$$GT$11spec_extend17hc44d851385de3327E:
	.cfi_startproc
	subq	$104, %rsp
	.cfi_def_cfa_offset 112
	movq	%rsi, 88(%rsp)
	movq	%rdx, 96(%rsp)
	leaq	88(%rsp), %rax
	movq	%rdi, 80(%rsp)
	movq	%rax, %rdi
	callq	_ZN4core5slice13Iter$LT$T$GT$8as_slice17h037ee93fba48b96eE
	movq	%rax, 72(%rsp)
	movq	%rdx, 64(%rsp)
	movq	72(%rsp), %rdi
	movq	64(%rsp), %rsi
	callq	_ZN4core5slice29_$LT$impl$u20$$u5b$T$u5d$$GT$3len17h8863da59ab28e3d6E
	movq	%rax, 56(%rsp)
	movq	80(%rsp), %rdi
	movq	56(%rsp), %rsi
	callq	_ZN5alloc3vec12Vec$LT$T$GT$7reserve17h8556103f1688e9c9E
	movq	80(%rsp), %rdi
	callq	_ZN5alloc3vec12Vec$LT$T$GT$3len17h60ce8c16853a4a72E
	movq	%rax, 48(%rsp)
	movq	80(%rsp), %rdi
	callq	_ZN5alloc3vec12Vec$LT$T$GT$10as_mut_ptr17h83c8df7d65e2f96aE
	movq	%rax, 40(%rsp)
	movq	40(%rsp), %rdi
	movq	48(%rsp), %rsi
	callq	_ZN4core3ptr7mut_ptr31_$LT$impl$u20$$BP$mut$u20$T$GT$3add17h609c07695c86fdb1E
	movq	%rax, 32(%rsp)
	movq	72(%rsp), %rdi
	movq	64(%rsp), %rsi
	callq	_ZN4core5slice29_$LT$impl$u20$$u5b$T$u5d$$GT$3len17h8863da59ab28e3d6E
	movq	%rax, 24(%rsp)
	movq	32(%rsp), %rdi
	movq	24(%rsp), %rsi
	callq	_ZN4core5slice18from_raw_parts_mut17he6049aa48e4fca34E
	movq	%rax, 16(%rsp)
	movq	%rdx, 8(%rsp)
	movq	16(%rsp), %rdi
	movq	8(%rsp), %rsi
	movq	72(%rsp), %rdx
	movq	64(%rsp), %rcx
	callq	_ZN4core5slice29_$LT$impl$u20$$u5b$T$u5d$$GT$15copy_from_slice17h55c3ae9f3ee90c3bE
	movq	72(%rsp), %rdi
	movq	64(%rsp), %rsi
	callq	_ZN4core5slice29_$LT$impl$u20$$u5b$T$u5d$$GT$3len17h8863da59ab28e3d6E
	movq	%rax, (%rsp)
	movq	48(%rsp), %rax
	movq	(%rsp), %rcx
	addq	%rcx, %rax
	movq	80(%rsp), %rdi
	movq	%rax, %rsi
	callq	_ZN5alloc3vec12Vec$LT$T$GT$7set_len17hff0a8ab7e4b18312E
	addq	$104, %rsp
	.cfi_def_cfa_offset 8
	retq
.Lfunc_end1:
	.size	_ZN109_$LT$alloc..vec..Vec$LT$T$GT$$u20$as$u20$alloc..vec..SpecExtend$LT$$RF$T$C$core..slice..Iter$LT$T$GT$$GT$$GT$11spec_extend17hc44d851385de3327E, .Lfunc_end1-_ZN109_$LT$alloc..vec..Vec$LT$T$GT$$u20$as$u20$alloc..vec..SpecExtend$LT$$RF$T$C$core..slice..Iter$LT$T$GT$$GT$$GT$11spec_extend17hc44d851385de3327E
	.cfi_endproc

	.section	".text._ZN111_$LT$core..iter..adapters..zip..Zip$LT$A$C$B$GT$$u20$as$u20$core..iter..adapters..zip..ZipImpl$LT$A$C$B$GT$$GT$3new17h4af788ea7ad61072E","ax",@progbits
	.p2align	4, 0x90
	.type	_ZN111_$LT$core..iter..adapters..zip..Zip$LT$A$C$B$GT$$u20$as$u20$core..iter..adapters..zip..ZipImpl$LT$A$C$B$GT$$GT$3new17h4af788ea7ad61072E,@function
_ZN111_$LT$core..iter..adapters..zip..Zip$LT$A$C$B$GT$$u20$as$u20$core..iter..adapters..zip..ZipImpl$LT$A$C$B$GT$$GT$3new17h4af788ea7ad61072E:
.Lfunc_begin0:
	.cfi_startproc
	.cfi_personality 155, DW.ref.rust_eh_personality
	.cfi_lsda 27, .Lexception0
	subq	$248, %rsp
	.cfi_def_cfa_offset 256
	movq	%rdi, %rax
	movq	%rsi, 152(%rsp)
	movq	%rdx, 160(%rsp)
	movq	%rcx, 168(%rsp)
	movq	%r8, 176(%rsp)
	movq	152(%rsp), %rcx
.Ltmp0:
	movq	%rdi, 144(%rsp)
	movq	%rcx, %rdi
	movq	%rax, 136(%rsp)
	movq	%rcx, 128(%rsp)
	callq	_ZN4core3ptr8non_null16NonNull$LT$T$GT$6as_ptr17hb728d00a2d826924E
.Ltmp1:
	jmp	.LBB2_1
.LBB2_1:
	movq	$8, 216(%rsp)
	movq	216(%rsp), %rax
	cmpq	$0, %rax
	movq	%rax, 120(%rsp)
	je	.LBB2_4
	movq	160(%rsp), %rax
.Ltmp2:
	movq	128(%rsp), %rdi
	movq	%rax, 112(%rsp)
	callq	_ZN4core3ptr8non_null16NonNull$LT$T$GT$6as_ptr17hb728d00a2d826924E
.Ltmp3:
	movq	%rax, 104(%rsp)
	jmp	.LBB2_3
.LBB2_3:
	movq	112(%rsp), %rax
	movq	104(%rsp), %rcx
	subq	%rcx, %rax
	movq	%rax, 208(%rsp)
	movq	208(%rsp), %rax
	xorl	%edx, %edx
	movq	120(%rsp), %rsi
	divq	%rsi
	movq	%rax, 200(%rsp)
	jmp	.LBB2_7
.LBB2_4:
	movq	160(%rsp), %rdi
.Ltmp4:
	movq	128(%rsp), %rax
	movq	%rdi, 96(%rsp)
	movq	%rax, %rdi
	callq	_ZN4core3ptr8non_null16NonNull$LT$T$GT$6as_ptr17hb728d00a2d826924E
.Ltmp5:
	movq	%rax, 88(%rsp)
	jmp	.LBB2_5
.LBB2_5:
.Ltmp6:
	movq	96(%rsp), %rdi
	movq	88(%rsp), %rsi
	callq	_ZN4core3num23_$LT$impl$u20$usize$GT$12wrapping_sub17h86c24ee04f06f4f6E
.Ltmp7:
	movq	%rax, 80(%rsp)
	jmp	.LBB2_6
.LBB2_6:
	movq	80(%rsp), %rax
	movq	%rax, 200(%rsp)
.LBB2_7:
	movq	200(%rsp), %rdi
	movq	%rdi, 72(%rsp)
	jmp	.LBB2_9
.LBB2_8:
	movq	184(%rsp), %rdi
	callq	_Unwind_Resume@PLT
	ud2
.LBB2_9:
	movq	168(%rsp), %rax
.Ltmp8:
	movq	%rax, %rdi
	movq	%rax, 64(%rsp)
	callq	_ZN4core3ptr8non_null16NonNull$LT$T$GT$6as_ptr17h04b93739be61039dE
.Ltmp9:
	jmp	.LBB2_10
.LBB2_10:
	movq	$4, 240(%rsp)
	movq	240(%rsp), %rax
	cmpq	$0, %rax
	movq	%rax, 56(%rsp)
	je	.LBB2_13
	movq	176(%rsp), %rax
.Ltmp10:
	movq	64(%rsp), %rdi
	movq	%rax, 48(%rsp)
	callq	_ZN4core3ptr8non_null16NonNull$LT$T$GT$6as_ptr17h04b93739be61039dE
.Ltmp11:
	movq	%rax, 40(%rsp)
	jmp	.LBB2_12
.LBB2_12:
	movq	48(%rsp), %rax
	movq	40(%rsp), %rcx
	subq	%rcx, %rax
	movq	%rax, 232(%rsp)
	movq	232(%rsp), %rax
	xorl	%edx, %edx
	movq	56(%rsp), %rsi
	divq	%rsi
	movq	%rax, 224(%rsp)
	jmp	.LBB2_16
.LBB2_13:
	movq	176(%rsp), %rdi
.Ltmp12:
	movq	64(%rsp), %rax
	movq	%rdi, 32(%rsp)
	movq	%rax, %rdi
	callq	_ZN4core3ptr8non_null16NonNull$LT$T$GT$6as_ptr17h04b93739be61039dE
.Ltmp13:
	movq	%rax, 24(%rsp)
	jmp	.LBB2_14
.LBB2_14:
.Ltmp14:
	movq	32(%rsp), %rdi
	movq	24(%rsp), %rsi
	callq	_ZN4core3num23_$LT$impl$u20$usize$GT$12wrapping_sub17h86c24ee04f06f4f6E
.Ltmp15:
	movq	%rax, 16(%rsp)
	jmp	.LBB2_15
.LBB2_15:
	movq	16(%rsp), %rax
	movq	%rax, 224(%rsp)
.LBB2_16:
	movq	224(%rsp), %rsi
	movq	%rsi, 8(%rsp)
	jmp	.LBB2_19
.LBB2_17:
	jmp	.LBB2_8
.LBB2_18:
	jmp	.LBB2_17
.LBB2_19:
.Ltmp16:
	movq	72(%rsp), %rdi
	movq	8(%rsp), %rsi
	callq	_ZN4core3cmp3min17h67aed1b6a32974ffE
.Ltmp17:
	movq	%rax, (%rsp)
	jmp	.LBB2_20
.LBB2_20:
	movq	152(%rsp), %rax
	movq	160(%rsp), %rcx
	movq	168(%rsp), %rdx
	movq	176(%rsp), %rsi
	movq	144(%rsp), %rdi
	movq	%rax, (%rdi)
	movq	%rcx, 8(%rdi)
	movq	%rdx, 16(%rdi)
	movq	%rsi, 24(%rdi)
	movq	$0, 32(%rdi)
	movq	(%rsp), %rax
	movq	%rax, 40(%rdi)
	movq	136(%rsp), %rax
	addq	$248, %rsp
	.cfi_def_cfa_offset 8
	retq
.LBB2_21:
	.cfi_def_cfa_offset 256
.Ltmp18:
	movq	%rax, 184(%rsp)
	movl	%edx, 192(%rsp)
	jmp	.LBB2_18
.Lfunc_end2:
	.size	_ZN111_$LT$core..iter..adapters..zip..Zip$LT$A$C$B$GT$$u20$as$u20$core..iter..adapters..zip..ZipImpl$LT$A$C$B$GT$$GT$3new17h4af788ea7ad61072E, .Lfunc_end2-_ZN111_$LT$core..iter..adapters..zip..Zip$LT$A$C$B$GT$$u20$as$u20$core..iter..adapters..zip..ZipImpl$LT$A$C$B$GT$$GT$3new17h4af788ea7ad61072E
	.cfi_endproc
	.section	.gcc_except_table,"a",@progbits
	.p2align	2
GCC_except_table2:
.Lexception0:
	.byte	255
	.byte	255
	.byte	1
	.uleb128 .Lcst_end0-.Lcst_begin0
.Lcst_begin0:
	.uleb128 .Ltmp0-.Lfunc_begin0
	.uleb128 .Ltmp7-.Ltmp0
	.uleb128 .Ltmp18-.Lfunc_begin0
	.byte	0
	.uleb128 .Ltmp7-.Lfunc_begin0
	.uleb128 .Ltmp8-.Ltmp7
	.byte	0
	.byte	0
	.uleb128 .Ltmp8-.Lfunc_begin0
	.uleb128 .Ltmp17-.Ltmp8
	.uleb128 .Ltmp18-.Lfunc_begin0
	.byte	0
.Lcst_end0:
	.p2align	2

	.section	".text._ZN111_$LT$core..iter..adapters..zip..Zip$LT$A$C$B$GT$$u20$as$u20$core..iter..adapters..zip..ZipImpl$LT$A$C$B$GT$$GT$4next17h79d396b17b78166cE","ax",@progbits
	.p2align	4, 0x90
	.type	_ZN111_$LT$core..iter..adapters..zip..Zip$LT$A$C$B$GT$$u20$as$u20$core..iter..adapters..zip..ZipImpl$LT$A$C$B$GT$$GT$4next17h79d396b17b78166cE,@function
_ZN111_$LT$core..iter..adapters..zip..Zip$LT$A$C$B$GT$$u20$as$u20$core..iter..adapters..zip..ZipImpl$LT$A$C$B$GT$$GT$4next17h79d396b17b78166cE:
.Lfunc_begin1:
	.cfi_startproc
	.cfi_personality 155, DW.ref.rust_eh_personality
	.cfi_lsda 27, .Lexception1
	subq	$184, %rsp
	.cfi_def_cfa_offset 192
	movq	32(%rdi), %rax
	cmpq	40(%rdi), %rax
	movq	%rdi, 96(%rsp)
	jb	.LBB3_3
	jmp	.LBB3_2
.LBB3_1:
	movq	144(%rsp), %rdi
	callq	_Unwind_Resume@PLT
	ud2
.LBB3_2:
	callq	_ZN93_$LT$core..slice..Iter$LT$T$GT$$u20$as$u20$core..iter..adapters..zip..TrustedRandomAccess$GT$20may_have_side_effect17hb9bc7268a5c5b766E
	movb	%al, 95(%rsp)
	jmp	.LBB3_14
.LBB3_3:
	movq	96(%rsp), %rax
	movq	32(%rax), %rcx
	movq	32(%rax), %rdx
	addq	$1, %rdx
	movq	%rdx, 32(%rax)
	movq	%rax, %rdi
	movq	%rcx, %rsi
	movq	%rcx, 80(%rsp)
	callq	_ZN93_$LT$core..slice..Iter$LT$T$GT$$u20$as$u20$core..iter..adapters..zip..TrustedRandomAccess$GT$13get_unchecked17hf66f93a004ace392E
	movq	%rax, 72(%rsp)
	movq	96(%rsp), %rax
	addq	$16, %rax
.Ltmp19:
	movq	%rax, %rdi
	movq	80(%rsp), %rsi
	callq	_ZN93_$LT$core..slice..Iter$LT$T$GT$$u20$as$u20$core..iter..adapters..zip..TrustedRandomAccess$GT$13get_unchecked17hd76ed7f9aa7d4017E
.Ltmp20:
	movq	%rax, 64(%rsp)
	jmp	.LBB3_5
.LBB3_5:
	movq	72(%rsp), %rax
	movq	%rax, 120(%rsp)
	movq	64(%rsp), %rcx
	movq	%rcx, 128(%rsp)
	movq	120(%rsp), %rdx
	movq	128(%rsp), %rsi
	movq	%rdx, 104(%rsp)
	movq	%rsi, 112(%rsp)
	jmp	.LBB3_21
.LBB3_6:
	jmp	.LBB3_1
.LBB3_7:
	movb	$1, 143(%rsp)
	jmp	.LBB3_13
.LBB3_8:
	movb	$0, 143(%rsp)
	jmp	.LBB3_13
.LBB3_9:
	movq	96(%rsp), %rax
	movq	32(%rax), %rcx
	movq	96(%rsp), %rdx
	movq	(%rdx), %rsi
	movq	%rsi, %rdi
	movq	%rcx, 56(%rsp)
	movq	%rax, 48(%rsp)
	movq	%rsi, 40(%rsp)
	callq	_ZN4core3ptr8non_null16NonNull$LT$T$GT$6as_ptr17hb728d00a2d826924E
	movq	$8, 176(%rsp)
	movq	176(%rsp), %rcx
	cmpq	$0, %rcx
	movq	%rcx, 32(%rsp)
	je	.LBB3_11
	movq	48(%rsp), %rax
	movq	8(%rax), %rcx
	movq	40(%rsp), %rdi
	movq	%rcx, 24(%rsp)
	callq	_ZN4core3ptr8non_null16NonNull$LT$T$GT$6as_ptr17hb728d00a2d826924E
	movq	24(%rsp), %rcx
	subq	%rax, %rcx
	movq	%rcx, 168(%rsp)
	movq	168(%rsp), %rax
	xorl	%edx, %edx
	movq	32(%rsp), %rcx
	divq	%rcx
	movq	%rax, 160(%rsp)
	jmp	.LBB3_12
.LBB3_11:
	movq	48(%rsp), %rax
	movq	8(%rax), %rdi
	movq	40(%rsp), %rcx
	movq	%rdi, 16(%rsp)
	movq	%rcx, %rdi
	callq	_ZN4core3ptr8non_null16NonNull$LT$T$GT$6as_ptr17hb728d00a2d826924E
	movq	16(%rsp), %rdi
	movq	%rax, %rsi
	callq	_ZN4core3num23_$LT$impl$u20$usize$GT$12wrapping_sub17h86c24ee04f06f4f6E
	movq	%rax, 160(%rsp)
.LBB3_12:
	movq	160(%rsp), %rax
	movq	%rax, 8(%rsp)
	jmp	.LBB3_15
.LBB3_13:
	testb	$1, 143(%rsp)
	jne	.LBB3_17
	jmp	.LBB3_16
.LBB3_14:
	movb	95(%rsp), %al
	testb	$1, %al
	jne	.LBB3_9
	jmp	.LBB3_8
.LBB3_15:
	movq	56(%rsp), %rax
	movq	8(%rsp), %rcx
	cmpq	%rcx, %rax
	jb	.LBB3_7
	jmp	.LBB3_8
.LBB3_16:
	movq	$0, 104(%rsp)
	jmp	.LBB3_20
.LBB3_17:
	movq	96(%rsp), %rax
	movq	96(%rsp), %rcx
	movq	32(%rcx), %rsi
	movq	%rax, %rdi
	callq	_ZN93_$LT$core..slice..Iter$LT$T$GT$$u20$as$u20$core..iter..adapters..zip..TrustedRandomAccess$GT$13get_unchecked17hf66f93a004ace392E
	jmp	.LBB3_19
.LBB3_19:
	movq	96(%rsp), %rax
	movq	32(%rax), %rcx
	addq	$1, %rcx
	movq	%rcx, 32(%rax)
	movq	$0, 104(%rsp)
.LBB3_20:
	jmp	.LBB3_21
.LBB3_21:
	movq	104(%rsp), %rax
	movq	112(%rsp), %rdx
	addq	$184, %rsp
	.cfi_def_cfa_offset 8
	retq
.LBB3_22:
	.cfi_def_cfa_offset 192
.Ltmp21:
	movq	%rax, 144(%rsp)
	movl	%edx, 152(%rsp)
	jmp	.LBB3_6
.Lfunc_end3:
	.size	_ZN111_$LT$core..iter..adapters..zip..Zip$LT$A$C$B$GT$$u20$as$u20$core..iter..adapters..zip..ZipImpl$LT$A$C$B$GT$$GT$4next17h79d396b17b78166cE, .Lfunc_end3-_ZN111_$LT$core..iter..adapters..zip..Zip$LT$A$C$B$GT$$u20$as$u20$core..iter..adapters..zip..ZipImpl$LT$A$C$B$GT$$GT$4next17h79d396b17b78166cE
	.cfi_endproc
	.section	.gcc_except_table,"a",@progbits
	.p2align	2
GCC_except_table3:
.Lexception1:
	.byte	255
	.byte	255
	.byte	1
	.uleb128 .Lcst_end1-.Lcst_begin1
.Lcst_begin1:
	.uleb128 .Lfunc_begin1-.Lfunc_begin1
	.uleb128 .Ltmp19-.Lfunc_begin1
	.byte	0
	.byte	0
	.uleb128 .Ltmp19-.Lfunc_begin1
	.uleb128 .Ltmp20-.Ltmp19
	.uleb128 .Ltmp21-.Lfunc_begin1
	.byte	0
	.uleb128 .Ltmp20-.Lfunc_begin1
	.uleb128 .Lfunc_end3-.Ltmp20
	.byte	0
	.byte	0
.Lcst_end1:
	.p2align	2

	.section	".text._ZN119_$LT$core..ptr..non_null..NonNull$LT$T$GT$$u20$as$u20$core..convert..From$LT$core..ptr..unique..Unique$LT$T$GT$$GT$$GT$4from17hc77575cacddcd3a8E","ax",@progbits
	.p2align	4, 0x90
	.type	_ZN119_$LT$core..ptr..non_null..NonNull$LT$T$GT$$u20$as$u20$core..convert..From$LT$core..ptr..unique..Unique$LT$T$GT$$GT$$GT$4from17hc77575cacddcd3a8E,@function
_ZN119_$LT$core..ptr..non_null..NonNull$LT$T$GT$$u20$as$u20$core..convert..From$LT$core..ptr..unique..Unique$LT$T$GT$$GT$$GT$4from17hc77575cacddcd3a8E:
	.cfi_startproc
	subq	$24, %rsp
	.cfi_def_cfa_offset 32
	callq	_ZN4core3ptr6unique15Unique$LT$T$GT$6as_ptr17h5dd80c0f235e42d9E
	movq	%rax, 16(%rsp)
	movq	16(%rsp), %rdi
	callq	_ZN4core3ptr8non_null16NonNull$LT$T$GT$13new_unchecked17h6d29cf6a4c6340c5E
	movq	%rax, 8(%rsp)
	movq	8(%rsp), %rax
	addq	$24, %rsp
	.cfi_def_cfa_offset 8
	retq
.Lfunc_end4:
	.size	_ZN119_$LT$core..ptr..non_null..NonNull$LT$T$GT$$u20$as$u20$core..convert..From$LT$core..ptr..unique..Unique$LT$T$GT$$GT$$GT$4from17hc77575cacddcd3a8E, .Lfunc_end4-_ZN119_$LT$core..ptr..non_null..NonNull$LT$T$GT$$u20$as$u20$core..convert..From$LT$core..ptr..unique..Unique$LT$T$GT$$GT$$GT$4from17hc77575cacddcd3a8E
	.cfi_endproc

	.section	".text._ZN36_$LT$T$u20$as$u20$core..any..Any$GT$7type_id17h98301bedcfac6112E","ax",@progbits
	.p2align	4, 0x90
	.type	_ZN36_$LT$T$u20$as$u20$core..any..Any$GT$7type_id17h98301bedcfac6112E,@function
_ZN36_$LT$T$u20$as$u20$core..any..Any$GT$7type_id17h98301bedcfac6112E:
	.cfi_startproc
	subq	$24, %rsp
	.cfi_def_cfa_offset 32
	movq	%rdi, 16(%rsp)
	callq	_ZN4core3any6TypeId2of17h8f2fafc7d79537a8E
	movq	%rax, 8(%rsp)
	movq	8(%rsp), %rax
	addq	$24, %rsp
	.cfi_def_cfa_offset 8
	retq
.Lfunc_end5:
	.size	_ZN36_$LT$T$u20$as$u20$core..any..Any$GT$7type_id17h98301bedcfac6112E, .Lfunc_end5-_ZN36_$LT$T$u20$as$u20$core..any..Any$GT$7type_id17h98301bedcfac6112E
	.cfi_endproc

	.section	.text._ZN3std2rt10lang_start17h6f5948d46a39fdf2E,"ax",@progbits
	.hidden	_ZN3std2rt10lang_start17h6f5948d46a39fdf2E
	.globl	_ZN3std2rt10lang_start17h6f5948d46a39fdf2E
	.p2align	4, 0x90
	.type	_ZN3std2rt10lang_start17h6f5948d46a39fdf2E,@function
_ZN3std2rt10lang_start17h6f5948d46a39fdf2E:
	.cfi_startproc
	subq	$40, %rsp
	.cfi_def_cfa_offset 48
	leaq	.L__unnamed_1(%rip), %rax
	movq	%rdi, 32(%rsp)
	leaq	32(%rsp), %rcx
	movq	%rcx, %rdi
	movq	%rsi, 24(%rsp)
	movq	%rax, %rsi
	movq	24(%rsp), %rax
	movq	%rdx, 16(%rsp)
	movq	%rax, %rdx
	movq	16(%rsp), %rcx
	callq	*_ZN3std2rt19lang_start_internal17h464df2bbf46c7e7cE@GOTPCREL(%rip)
	movq	%rax, 8(%rsp)
	movq	8(%rsp), %rax
	addq	$40, %rsp
	.cfi_def_cfa_offset 8
	retq
.Lfunc_end6:
	.size	_ZN3std2rt10lang_start17h6f5948d46a39fdf2E, .Lfunc_end6-_ZN3std2rt10lang_start17h6f5948d46a39fdf2E
	.cfi_endproc

	.section	".text._ZN3std2rt10lang_start28_$u7b$$u7b$closure$u7d$$u7d$17h7b077afa09df024dE","ax",@progbits
	.p2align	4, 0x90
	.type	_ZN3std2rt10lang_start28_$u7b$$u7b$closure$u7d$$u7d$17h7b077afa09df024dE,@function
_ZN3std2rt10lang_start28_$u7b$$u7b$closure$u7d$$u7d$17h7b077afa09df024dE:
	.cfi_startproc
	pushq	%rax
	.cfi_def_cfa_offset 16
	callq	*(%rdi)
	callq	_ZN54_$LT$$LP$$RP$$u20$as$u20$std..process..Termination$GT$6report17hc276b125fafbc23dE
	movl	%eax, 4(%rsp)
	movl	4(%rsp), %eax
	popq	%rcx
	.cfi_def_cfa_offset 8
	retq
.Lfunc_end7:
	.size	_ZN3std2rt10lang_start28_$u7b$$u7b$closure$u7d$$u7d$17h7b077afa09df024dE, .Lfunc_end7-_ZN3std2rt10lang_start28_$u7b$$u7b$closure$u7d$$u7d$17h7b077afa09df024dE
	.cfi_endproc

	.section	.text._ZN3std3sys4unix7process14process_common8ExitCode6as_i3217h4b900aeb27d3587dE,"ax",@progbits
	.p2align	4, 0x90
	.type	_ZN3std3sys4unix7process14process_common8ExitCode6as_i3217h4b900aeb27d3587dE,@function
_ZN3std3sys4unix7process14process_common8ExitCode6as_i3217h4b900aeb27d3587dE:
	.cfi_startproc
	movzbl	(%rdi), %eax
	retq
.Lfunc_end8:
	.size	_ZN3std3sys4unix7process14process_common8ExitCode6as_i3217h4b900aeb27d3587dE, .Lfunc_end8-_ZN3std3sys4unix7process14process_common8ExitCode6as_i3217h4b900aeb27d3587dE
	.cfi_endproc

	.section	.text._ZN3std9panicking11begin_panic17h1ea577cdbe503faaE,"ax",@progbits
	.p2align	4, 0x90
	.type	_ZN3std9panicking11begin_panic17h1ea577cdbe503faaE,@function
_ZN3std9panicking11begin_panic17h1ea577cdbe503faaE:
.Lfunc_begin2:
	.cfi_startproc
	.cfi_personality 155, DW.ref.rust_eh_personality
	.cfi_lsda 27, .Lexception2
	subq	$88, %rsp
	.cfi_def_cfa_offset 96
	movb	$0, 71(%rsp)
	movb	$1, 71(%rsp)
	movb	$0, 71(%rsp)
.Ltmp22:
	movq	%rdx, 40(%rsp)
	callq	_ZN3std9panicking11begin_panic21PanicPayload$LT$A$GT$3new17h5193852992358944E
.Ltmp23:
	movq	%rdx, 32(%rsp)
	movq	%rax, 24(%rsp)
	jmp	.LBB9_2
.LBB9_1:
	movq	72(%rsp), %rdi
	callq	_Unwind_Resume@PLT
	ud2
.LBB9_2:
	movq	24(%rsp), %rax
	movq	%rax, 48(%rsp)
	movq	32(%rsp), %rcx
	movq	%rcx, 56(%rsp)
	leaq	48(%rsp), %rdi
.Ltmp25:
	movq	_ZN4core5panic8Location6caller17h548fd9a4021cce0aE@GOTPCREL(%rip), %rdx
	movq	40(%rsp), %rsi
	movq	%rdi, 16(%rsp)
	movq	%rsi, %rdi
	callq	*%rdx
.Ltmp26:
	movq	%rax, 8(%rsp)
	jmp	.LBB9_4
.LBB9_3:
	jmp	.LBB9_6
.LBB9_4:
.Ltmp27:
	leaq	.L__unnamed_2(%rip), %rsi
	movq	_ZN3std9panicking20rust_panic_with_hook17h88a1f16ec8a7bb20E@GOTPCREL(%rip), %rax
	xorl	%ecx, %ecx
	movl	%ecx, %edx
	movq	16(%rsp), %rdi
	movq	8(%rsp), %rcx
	callq	*%rax
.Ltmp28:
	jmp	.LBB9_9
.LBB9_5:
	movb	$0, 71(%rsp)
	jmp	.LBB9_1
.LBB9_6:
	testb	$1, 71(%rsp)
	jne	.LBB9_5
	jmp	.LBB9_1
.LBB9_7:
.Ltmp24:
	movq	%rax, 72(%rsp)
	movl	%edx, 80(%rsp)
	jmp	.LBB9_6
.LBB9_8:
.Ltmp29:
	movq	%rax, 72(%rsp)
	movl	%edx, 80(%rsp)
	jmp	.LBB9_3
.LBB9_9:
	ud2
.Lfunc_end9:
	.size	_ZN3std9panicking11begin_panic17h1ea577cdbe503faaE, .Lfunc_end9-_ZN3std9panicking11begin_panic17h1ea577cdbe503faaE
	.cfi_endproc
	.section	.gcc_except_table,"a",@progbits
	.p2align	2
GCC_except_table9:
.Lexception2:
	.byte	255
	.byte	255
	.byte	1
	.uleb128 .Lcst_end2-.Lcst_begin2
.Lcst_begin2:
	.uleb128 .Ltmp22-.Lfunc_begin2
	.uleb128 .Ltmp23-.Ltmp22
	.uleb128 .Ltmp24-.Lfunc_begin2
	.byte	0
	.uleb128 .Ltmp23-.Lfunc_begin2
	.uleb128 .Ltmp25-.Ltmp23
	.byte	0
	.byte	0
	.uleb128 .Ltmp25-.Lfunc_begin2
	.uleb128 .Ltmp28-.Ltmp25
	.uleb128 .Ltmp29-.Lfunc_begin2
	.byte	0
.Lcst_end2:
	.p2align	2

	.section	".text._ZN3std9panicking11begin_panic21PanicPayload$LT$A$GT$3new17h5193852992358944E","ax",@progbits
	.p2align	4, 0x90
	.type	_ZN3std9panicking11begin_panic21PanicPayload$LT$A$GT$3new17h5193852992358944E,@function
_ZN3std9panicking11begin_panic21PanicPayload$LT$A$GT$3new17h5193852992358944E:
	.cfi_startproc
	subq	$32, %rsp
	.cfi_def_cfa_offset 40
	movq	%rdi, 16(%rsp)
	movq	%rsi, 24(%rsp)
	movq	16(%rsp), %rax
	movq	24(%rsp), %rcx
	movq	%rax, (%rsp)
	movq	%rcx, 8(%rsp)
	movq	(%rsp), %rax
	movq	8(%rsp), %rdx
	addq	$32, %rsp
	.cfi_def_cfa_offset 8
	retq
.Lfunc_end10:
	.size	_ZN3std9panicking11begin_panic21PanicPayload$LT$A$GT$3new17h5193852992358944E, .Lfunc_end10-_ZN3std9panicking11begin_panic21PanicPayload$LT$A$GT$3new17h5193852992358944E
	.cfi_endproc

	.section	".text._ZN42_$LT$$RF$T$u20$as$u20$core..fmt..Debug$GT$3fmt17h0bafd3503b93455fE","ax",@progbits
	.p2align	4, 0x90
	.type	_ZN42_$LT$$RF$T$u20$as$u20$core..fmt..Debug$GT$3fmt17h0bafd3503b93455fE,@function
_ZN42_$LT$$RF$T$u20$as$u20$core..fmt..Debug$GT$3fmt17h0bafd3503b93455fE:
	.cfi_startproc
	pushq	%rax
	.cfi_def_cfa_offset 16
	movq	(%rdi), %rdi
	callq	_ZN61_$LT$alloc..vec..Vec$LT$T$GT$$u20$as$u20$core..fmt..Debug$GT$3fmt17h3ea1599477786049E
	movb	%al, 7(%rsp)
	movb	7(%rsp), %al
	andb	$1, %al
	movzbl	%al, %eax
	popq	%rcx
	.cfi_def_cfa_offset 8
	retq
.Lfunc_end11:
	.size	_ZN42_$LT$$RF$T$u20$as$u20$core..fmt..Debug$GT$3fmt17h0bafd3503b93455fE, .Lfunc_end11-_ZN42_$LT$$RF$T$u20$as$u20$core..fmt..Debug$GT$3fmt17h0bafd3503b93455fE
	.cfi_endproc

	.section	".text._ZN42_$LT$$RF$T$u20$as$u20$core..fmt..Debug$GT$3fmt17h38229467c220950fE","ax",@progbits
	.p2align	4, 0x90
	.type	_ZN42_$LT$$RF$T$u20$as$u20$core..fmt..Debug$GT$3fmt17h38229467c220950fE,@function
_ZN42_$LT$$RF$T$u20$as$u20$core..fmt..Debug$GT$3fmt17h38229467c220950fE:
	.cfi_startproc
	subq	$24, %rsp
	.cfi_def_cfa_offset 32
	movq	(%rdi), %rax
	movq	8(%rdi), %rcx
	movq	%rax, %rdi
	movq	%rsi, 16(%rsp)
	movq	%rcx, %rsi
	movq	16(%rsp), %rdx
	callq	_ZN48_$LT$$u5b$T$u5d$$u20$as$u20$core..fmt..Debug$GT$3fmt17h5e4fd69bc1bdeabaE
	movb	%al, 15(%rsp)
	movb	15(%rsp), %al
	andb	$1, %al
	movzbl	%al, %eax
	addq	$24, %rsp
	.cfi_def_cfa_offset 8
	retq
.Lfunc_end12:
	.size	_ZN42_$LT$$RF$T$u20$as$u20$core..fmt..Debug$GT$3fmt17h38229467c220950fE, .Lfunc_end12-_ZN42_$LT$$RF$T$u20$as$u20$core..fmt..Debug$GT$3fmt17h38229467c220950fE
	.cfi_endproc

	.section	".text._ZN42_$LT$$RF$T$u20$as$u20$core..fmt..Debug$GT$3fmt17h3a73068f9cdefca5E","ax",@progbits
	.p2align	4, 0x90
	.type	_ZN42_$LT$$RF$T$u20$as$u20$core..fmt..Debug$GT$3fmt17h3a73068f9cdefca5E,@function
_ZN42_$LT$$RF$T$u20$as$u20$core..fmt..Debug$GT$3fmt17h3a73068f9cdefca5E:
	.cfi_startproc
	pushq	%rax
	.cfi_def_cfa_offset 16
	movq	(%rdi), %rdi
	callq	_ZN4core3fmt3num52_$LT$impl$u20$core..fmt..Debug$u20$for$u20$usize$GT$3fmt17h9aeaf5d18699563fE
	movb	%al, 7(%rsp)
	movb	7(%rsp), %al
	andb	$1, %al
	movzbl	%al, %eax
	popq	%rcx
	.cfi_def_cfa_offset 8
	retq
.Lfunc_end13:
	.size	_ZN42_$LT$$RF$T$u20$as$u20$core..fmt..Debug$GT$3fmt17h3a73068f9cdefca5E, .Lfunc_end13-_ZN42_$LT$$RF$T$u20$as$u20$core..fmt..Debug$GT$3fmt17h3a73068f9cdefca5E
	.cfi_endproc

	.section	".text._ZN42_$LT$$RF$T$u20$as$u20$core..fmt..Debug$GT$3fmt17hfde025b073541cbdE","ax",@progbits
	.p2align	4, 0x90
	.type	_ZN42_$LT$$RF$T$u20$as$u20$core..fmt..Debug$GT$3fmt17hfde025b073541cbdE,@function
_ZN42_$LT$$RF$T$u20$as$u20$core..fmt..Debug$GT$3fmt17hfde025b073541cbdE:
	.cfi_startproc
	pushq	%rax
	.cfi_def_cfa_offset 16
	movq	(%rdi), %rdi
	callq	_ZN4core3fmt3num50_$LT$impl$u20$core..fmt..Debug$u20$for$u20$i32$GT$3fmt17h8112bb988b7ec620E
	movb	%al, 7(%rsp)
	movb	7(%rsp), %al
	andb	$1, %al
	movzbl	%al, %eax
	popq	%rcx
	.cfi_def_cfa_offset 8
	retq
.Lfunc_end14:
	.size	_ZN42_$LT$$RF$T$u20$as$u20$core..fmt..Debug$GT$3fmt17hfde025b073541cbdE, .Lfunc_end14-_ZN42_$LT$$RF$T$u20$as$u20$core..fmt..Debug$GT$3fmt17hfde025b073541cbdE
	.cfi_endproc

	.section	".text._ZN44_$LT$$RF$T$u20$as$u20$core..fmt..Display$GT$3fmt17he60a03c2536543acE","ax",@progbits
	.p2align	4, 0x90
	.type	_ZN44_$LT$$RF$T$u20$as$u20$core..fmt..Display$GT$3fmt17he60a03c2536543acE,@function
_ZN44_$LT$$RF$T$u20$as$u20$core..fmt..Display$GT$3fmt17he60a03c2536543acE:
	.cfi_startproc
	pushq	%rax
	.cfi_def_cfa_offset 16
	movq	(%rdi), %rdi
	callq	*_ZN4core3fmt3num3imp52_$LT$impl$u20$core..fmt..Display$u20$for$u20$i32$GT$3fmt17h4a5249bafd9204fbE@GOTPCREL(%rip)
	movb	%al, 7(%rsp)
	movb	7(%rsp), %al
	andb	$1, %al
	movzbl	%al, %eax
	popq	%rcx
	.cfi_def_cfa_offset 8
	retq
.Lfunc_end15:
	.size	_ZN44_$LT$$RF$T$u20$as$u20$core..fmt..Display$GT$3fmt17he60a03c2536543acE, .Lfunc_end15-_ZN44_$LT$$RF$T$u20$as$u20$core..fmt..Display$GT$3fmt17he60a03c2536543acE
	.cfi_endproc

	.section	".text._ZN45_$LT$i32$u20$as$u20$core..ops..arith..Add$GT$3add17h45cc408c66a9d838E","ax",@progbits
	.p2align	4, 0x90
	.type	_ZN45_$LT$i32$u20$as$u20$core..ops..arith..Add$GT$3add17h45cc408c66a9d838E,@function
_ZN45_$LT$i32$u20$as$u20$core..ops..arith..Add$GT$3add17h45cc408c66a9d838E:
	.cfi_startproc
	pushq	%rax
	.cfi_def_cfa_offset 16
	addl	%esi, %edi
	seto	%al
	testb	$1, %al
	movl	%edi, 4(%rsp)
	jne	.LBB16_2
	movl	4(%rsp), %eax
	popq	%rcx
	.cfi_def_cfa_offset 8
	retq
.LBB16_2:
	.cfi_def_cfa_offset 16
	leaq	str.0(%rip), %rdi
	leaq	.L__unnamed_3(%rip), %rdx
	movq	_ZN4core9panicking5panic17h9a68a32bce6b52cfE@GOTPCREL(%rip), %rax
	movl	$28, %esi
	callq	*%rax
	ud2
.Lfunc_end16:
	.size	_ZN45_$LT$i32$u20$as$u20$core..ops..arith..Add$GT$3add17h45cc408c66a9d838E, .Lfunc_end16-_ZN45_$LT$i32$u20$as$u20$core..ops..arith..Add$GT$3add17h45cc408c66a9d838E
	.cfi_endproc

	.section	".text._ZN45_$LT$i64$u20$as$u20$core..ops..arith..Add$GT$3add17hc986cadad304943eE","ax",@progbits
	.p2align	4, 0x90
	.type	_ZN45_$LT$i64$u20$as$u20$core..ops..arith..Add$GT$3add17hc986cadad304943eE,@function
_ZN45_$LT$i64$u20$as$u20$core..ops..arith..Add$GT$3add17hc986cadad304943eE:
	.cfi_startproc
	pushq	%rax
	.cfi_def_cfa_offset 16
	addq	%rsi, %rdi
	seto	%al
	testb	$1, %al
	movq	%rdi, (%rsp)
	jne	.LBB17_2
	movq	(%rsp), %rax
	popq	%rcx
	.cfi_def_cfa_offset 8
	retq
.LBB17_2:
	.cfi_def_cfa_offset 16
	leaq	str.0(%rip), %rdi
	leaq	.L__unnamed_3(%rip), %rdx
	movq	_ZN4core9panicking5panic17h9a68a32bce6b52cfE@GOTPCREL(%rip), %rax
	movl	$28, %esi
	callq	*%rax
	ud2
.Lfunc_end17:
	.size	_ZN45_$LT$i64$u20$as$u20$core..ops..arith..Add$GT$3add17hc986cadad304943eE, .Lfunc_end17-_ZN45_$LT$i64$u20$as$u20$core..ops..arith..Add$GT$3add17hc986cadad304943eE
	.cfi_endproc

	.section	".text._ZN48_$LT$$u5b$T$u5d$$u20$as$u20$core..fmt..Debug$GT$3fmt17h5e4fd69bc1bdeabaE","ax",@progbits
	.p2align	4, 0x90
	.type	_ZN48_$LT$$u5b$T$u5d$$u20$as$u20$core..fmt..Debug$GT$3fmt17h5e4fd69bc1bdeabaE,@function
_ZN48_$LT$$u5b$T$u5d$$u20$as$u20$core..fmt..Debug$GT$3fmt17h5e4fd69bc1bdeabaE:
	.cfi_startproc
	subq	$72, %rsp
	.cfi_def_cfa_offset 80
	leaq	56(%rsp), %rax
	movq	%rdi, 48(%rsp)
	movq	%rax, %rdi
	movq	%rsi, 40(%rsp)
	movq	%rdx, %rsi
	callq	*_ZN4core3fmt9Formatter10debug_list17h59618679d9b442d7E@GOTPCREL(%rip)
	movq	48(%rsp), %rdi
	movq	40(%rsp), %rsi
	callq	_ZN4core5slice29_$LT$impl$u20$$u5b$T$u5d$$GT$4iter17hbe1f17dbc849c73eE
	movq	%rax, 32(%rsp)
	movq	%rdx, 24(%rsp)
	leaq	56(%rsp), %rdi
	movq	32(%rsp), %rsi
	movq	24(%rsp), %rdx
	callq	_ZN4core3fmt8builders9DebugList7entries17he89cd873fa7e1286E
	movq	%rax, 16(%rsp)
	movq	16(%rsp), %rdi
	callq	*_ZN4core3fmt8builders9DebugList6finish17hb51df43dcbee21f0E@GOTPCREL(%rip)
	movb	%al, 15(%rsp)
	movb	15(%rsp), %al
	andb	$1, %al
	movzbl	%al, %eax
	addq	$72, %rsp
	.cfi_def_cfa_offset 8
	retq
.Lfunc_end18:
	.size	_ZN48_$LT$$u5b$T$u5d$$u20$as$u20$core..fmt..Debug$GT$3fmt17h5e4fd69bc1bdeabaE, .Lfunc_end18-_ZN48_$LT$$u5b$T$u5d$$u20$as$u20$core..fmt..Debug$GT$3fmt17h5e4fd69bc1bdeabaE
	.cfi_endproc

	.section	".text._ZN49_$LT$usize$u20$as$u20$core..iter..range..Step$GT$17forward_unchecked17h2015ea2a099ff553E","ax",@progbits
	.p2align	4, 0x90
	.type	_ZN49_$LT$usize$u20$as$u20$core..iter..range..Step$GT$17forward_unchecked17h2015ea2a099ff553E,@function
_ZN49_$LT$usize$u20$as$u20$core..iter..range..Step$GT$17forward_unchecked17h2015ea2a099ff553E:
	.cfi_startproc
	pushq	%rax
	.cfi_def_cfa_offset 16
	callq	_ZN4core3num23_$LT$impl$u20$usize$GT$13unchecked_add17h4c95c2ec516bbe4aE
	movq	%rax, (%rsp)
	movq	(%rsp), %rax
	popq	%rcx
	.cfi_def_cfa_offset 8
	retq
.Lfunc_end19:
	.size	_ZN49_$LT$usize$u20$as$u20$core..iter..range..Step$GT$17forward_unchecked17h2015ea2a099ff553E, .Lfunc_end19-_ZN49_$LT$usize$u20$as$u20$core..iter..range..Step$GT$17forward_unchecked17h2015ea2a099ff553E
	.cfi_endproc

	.section	.text._ZN4core10intrinsics11write_bytes17hd31ccfb3da2cb590E,"ax",@progbits
	.p2align	4, 0x90
	.type	_ZN4core10intrinsics11write_bytes17hd31ccfb3da2cb590E,@function
_ZN4core10intrinsics11write_bytes17hd31ccfb3da2cb590E:
	.cfi_startproc
	pushq	%rax
	.cfi_def_cfa_offset 16
	shlq	$0, %rdx
	movzbl	%sil, %esi
	callq	memset@PLT
	popq	%rax
	.cfi_def_cfa_offset 8
	retq
.Lfunc_end20:
	.size	_ZN4core10intrinsics11write_bytes17hd31ccfb3da2cb590E, .Lfunc_end20-_ZN4core10intrinsics11write_bytes17hd31ccfb3da2cb590E
	.cfi_endproc

	.section	.text._ZN4core10intrinsics19copy_nonoverlapping17h2b81904f254d32ddE,"ax",@progbits
	.p2align	4, 0x90
	.type	_ZN4core10intrinsics19copy_nonoverlapping17h2b81904f254d32ddE,@function
_ZN4core10intrinsics19copy_nonoverlapping17h2b81904f254d32ddE:
	.cfi_startproc
	pushq	%rax
	.cfi_def_cfa_offset 16
	shlq	$3, %rdx
	movq	%rdi, (%rsp)
	movq	%rsi, %rdi
	movq	(%rsp), %rsi
	callq	memcpy@PLT
	popq	%rax
	.cfi_def_cfa_offset 8
	retq
.Lfunc_end21:
	.size	_ZN4core10intrinsics19copy_nonoverlapping17h2b81904f254d32ddE, .Lfunc_end21-_ZN4core10intrinsics19copy_nonoverlapping17h2b81904f254d32ddE
	.cfi_endproc

	.section	.text._ZN4core10intrinsics19copy_nonoverlapping17h47c577baea7bd148E,"ax",@progbits
	.p2align	4, 0x90
	.type	_ZN4core10intrinsics19copy_nonoverlapping17h47c577baea7bd148E,@function
_ZN4core10intrinsics19copy_nonoverlapping17h47c577baea7bd148E:
	.cfi_startproc
	pushq	%rax
	.cfi_def_cfa_offset 16
	shlq	$0, %rdx
	movq	%rdi, (%rsp)
	movq	%rsi, %rdi
	movq	(%rsp), %rsi
	callq	memcpy@PLT
	popq	%rax
	.cfi_def_cfa_offset 8
	retq
.Lfunc_end22:
	.size	_ZN4core10intrinsics19copy_nonoverlapping17h47c577baea7bd148E, .Lfunc_end22-_ZN4core10intrinsics19copy_nonoverlapping17h47c577baea7bd148E
	.cfi_endproc

	.section	.text._ZN4core10intrinsics19copy_nonoverlapping17h794751cdc82e290aE,"ax",@progbits
	.p2align	4, 0x90
	.type	_ZN4core10intrinsics19copy_nonoverlapping17h794751cdc82e290aE,@function
_ZN4core10intrinsics19copy_nonoverlapping17h794751cdc82e290aE:
	.cfi_startproc
	pushq	%rax
	.cfi_def_cfa_offset 16
	shlq	$4, %rdx
	movq	%rdi, (%rsp)
	movq	%rsi, %rdi
	movq	(%rsp), %rsi
	callq	memcpy@PLT
	popq	%rax
	.cfi_def_cfa_offset 8
	retq
.Lfunc_end23:
	.size	_ZN4core10intrinsics19copy_nonoverlapping17h794751cdc82e290aE, .Lfunc_end23-_ZN4core10intrinsics19copy_nonoverlapping17h794751cdc82e290aE
	.cfi_endproc

	.section	.text._ZN4core3any6TypeId2of17h8f2fafc7d79537a8E,"ax",@progbits
	.p2align	4, 0x90
	.type	_ZN4core3any6TypeId2of17h8f2fafc7d79537a8E,@function
_ZN4core3any6TypeId2of17h8f2fafc7d79537a8E:
	.cfi_startproc
	subq	$24, %rsp
	.cfi_def_cfa_offset 32
	movabsq	$9147559743429524724, %rax
	movq	%rax, 16(%rsp)
	movq	16(%rsp), %rax
	movq	%rax, (%rsp)
	movq	(%rsp), %rax
	movq	%rax, 8(%rsp)
	movq	8(%rsp), %rax
	addq	$24, %rsp
	.cfi_def_cfa_offset 8
	retq
.Lfunc_end24:
	.size	_ZN4core3any6TypeId2of17h8f2fafc7d79537a8E, .Lfunc_end24-_ZN4core3any6TypeId2of17h8f2fafc7d79537a8E
	.cfi_endproc

	.section	.text._ZN4core3cmp3Ord3max17h12b8128e53cf674cE,"ax",@progbits
	.p2align	4, 0x90
	.type	_ZN4core3cmp3Ord3max17h12b8128e53cf674cE,@function
_ZN4core3cmp3Ord3max17h12b8128e53cf674cE:
	.cfi_startproc
	pushq	%rax
	.cfi_def_cfa_offset 16
	callq	_ZN4core3cmp6max_by17h4188bc4c0bc5111dE
	movq	%rax, (%rsp)
	movq	(%rsp), %rax
	popq	%rcx
	.cfi_def_cfa_offset 8
	retq
.Lfunc_end25:
	.size	_ZN4core3cmp3Ord3max17h12b8128e53cf674cE, .Lfunc_end25-_ZN4core3cmp3Ord3max17h12b8128e53cf674cE
	.cfi_endproc

	.section	.text._ZN4core3cmp3Ord3min17h17d8c1ca0147bd28E,"ax",@progbits
	.p2align	4, 0x90
	.type	_ZN4core3cmp3Ord3min17h17d8c1ca0147bd28E,@function
_ZN4core3cmp3Ord3min17h17d8c1ca0147bd28E:
	.cfi_startproc
	pushq	%rax
	.cfi_def_cfa_offset 16
	callq	_ZN4core3cmp6min_by17ha52b52630e59b77fE
	movq	%rax, (%rsp)
	movq	(%rsp), %rax
	popq	%rcx
	.cfi_def_cfa_offset 8
	retq
.Lfunc_end26:
	.size	_ZN4core3cmp3Ord3min17h17d8c1ca0147bd28E, .Lfunc_end26-_ZN4core3cmp3Ord3min17h17d8c1ca0147bd28E
	.cfi_endproc

	.section	.text._ZN4core3cmp3max17h9c477cf75c89f39eE,"ax",@progbits
	.p2align	4, 0x90
	.type	_ZN4core3cmp3max17h9c477cf75c89f39eE,@function
_ZN4core3cmp3max17h9c477cf75c89f39eE:
	.cfi_startproc
	pushq	%rax
	.cfi_def_cfa_offset 16
	callq	_ZN4core3cmp3Ord3max17h12b8128e53cf674cE
	movq	%rax, (%rsp)
	movq	(%rsp), %rax
	popq	%rcx
	.cfi_def_cfa_offset 8
	retq
.Lfunc_end27:
	.size	_ZN4core3cmp3max17h9c477cf75c89f39eE, .Lfunc_end27-_ZN4core3cmp3max17h9c477cf75c89f39eE
	.cfi_endproc

	.section	.text._ZN4core3cmp3min17h67aed1b6a32974ffE,"ax",@progbits
	.p2align	4, 0x90
	.type	_ZN4core3cmp3min17h67aed1b6a32974ffE,@function
_ZN4core3cmp3min17h67aed1b6a32974ffE:
	.cfi_startproc
	pushq	%rax
	.cfi_def_cfa_offset 16
	callq	_ZN4core3cmp3Ord3min17h17d8c1ca0147bd28E
	movq	%rax, (%rsp)
	movq	(%rsp), %rax
	popq	%rcx
	.cfi_def_cfa_offset 8
	retq
.Lfunc_end28:
	.size	_ZN4core3cmp3min17h67aed1b6a32974ffE, .Lfunc_end28-_ZN4core3cmp3min17h67aed1b6a32974ffE
	.cfi_endproc

	.section	".text._ZN4core3cmp5impls50_$LT$impl$u20$core..cmp..Ord$u20$for$u20$usize$GT$3cmp17heb7cb960ca913b95E","ax",@progbits
	.p2align	4, 0x90
	.type	_ZN4core3cmp5impls50_$LT$impl$u20$core..cmp..Ord$u20$for$u20$usize$GT$3cmp17heb7cb960ca913b95E,@function
_ZN4core3cmp5impls50_$LT$impl$u20$core..cmp..Ord$u20$for$u20$usize$GT$3cmp17heb7cb960ca913b95E:
	.cfi_startproc
	subq	$24, %rsp
	.cfi_def_cfa_offset 32
	movq	(%rdi), %rax
	cmpq	(%rsi), %rax
	movq	%rdi, 8(%rsp)
	movq	%rsi, (%rsp)
	jb	.LBB29_2
	movq	8(%rsp), %rax
	movq	(%rax), %rcx
	movq	(%rsp), %rdx
	cmpq	(%rdx), %rcx
	je	.LBB29_4
	jmp	.LBB29_3
.LBB29_2:
	movb	$-1, 23(%rsp)
	jmp	.LBB29_6
.LBB29_3:
	movb	$1, 23(%rsp)
	jmp	.LBB29_5
.LBB29_4:
	movb	$0, 23(%rsp)
.LBB29_5:
	jmp	.LBB29_6
.LBB29_6:
	movb	23(%rsp), %al
	addq	$24, %rsp
	.cfi_def_cfa_offset 8
	retq
.Lfunc_end29:
	.size	_ZN4core3cmp5impls50_$LT$impl$u20$core..cmp..Ord$u20$for$u20$usize$GT$3cmp17heb7cb960ca913b95E, .Lfunc_end29-_ZN4core3cmp5impls50_$LT$impl$u20$core..cmp..Ord$u20$for$u20$usize$GT$3cmp17heb7cb960ca913b95E
	.cfi_endproc

	.section	".text._ZN4core3cmp5impls57_$LT$impl$u20$core..cmp..PartialOrd$u20$for$u20$usize$GT$2lt17h05a926630260071dE","ax",@progbits
	.p2align	4, 0x90
	.type	_ZN4core3cmp5impls57_$LT$impl$u20$core..cmp..PartialOrd$u20$for$u20$usize$GT$2lt17h05a926630260071dE,@function
_ZN4core3cmp5impls57_$LT$impl$u20$core..cmp..PartialOrd$u20$for$u20$usize$GT$2lt17h05a926630260071dE:
	.cfi_startproc
	movq	(%rdi), %rax
	cmpq	(%rsi), %rax
	setb	%cl
	andb	$1, %cl
	movzbl	%cl, %eax
	retq
.Lfunc_end30:
	.size	_ZN4core3cmp5impls57_$LT$impl$u20$core..cmp..PartialOrd$u20$for$u20$usize$GT$2lt17h05a926630260071dE, .Lfunc_end30-_ZN4core3cmp5impls57_$LT$impl$u20$core..cmp..PartialOrd$u20$for$u20$usize$GT$2lt17h05a926630260071dE
	.cfi_endproc

	.section	.text._ZN4core3cmp6max_by17h4188bc4c0bc5111dE,"ax",@progbits
	.p2align	4, 0x90
	.type	_ZN4core3cmp6max_by17h4188bc4c0bc5111dE,@function
_ZN4core3cmp6max_by17h4188bc4c0bc5111dE:
.Lfunc_begin3:
	.cfi_startproc
	.cfi_personality 155, DW.ref.rust_eh_personality
	.cfi_lsda 27, .Lexception3
	subq	$88, %rsp
	.cfi_def_cfa_offset 96
	movq	%rdi, 16(%rsp)
	movq	%rsi, 24(%rsp)
	movb	$0, 70(%rsp)
	movb	$0, 71(%rsp)
	movb	$1, 70(%rsp)
	movb	$1, 71(%rsp)
	leaq	16(%rsp), %rax
	movq	%rax, 48(%rsp)
	leaq	24(%rsp), %rax
	movq	%rax, 56(%rsp)
	movq	48(%rsp), %rdi
	movq	56(%rsp), %rsi
.Ltmp30:
	callq	_ZN4core3ops8function6FnOnce9call_once17h57c49b6c645860ebE
.Ltmp31:
	movb	%al, 15(%rsp)
	jmp	.LBB31_2
.LBB31_1:
	movq	72(%rsp), %rdi
	callq	_Unwind_Resume@PLT
	ud2
.LBB31_2:
	movb	15(%rsp), %al
	movb	%al, 47(%rsp)
	movsbq	47(%rsp), %rcx
	addq	$1, %rcx
	subq	$2, %rcx
	jb	.LBB31_7
	jmp	.LBB31_15
.LBB31_15:
	jmp	.LBB31_5
.LBB31_3:
	testb	$1, 70(%rsp)
	jne	.LBB31_11
	jmp	.LBB31_1
.LBB31_4:
	movb	$0, 71(%rsp)
	jmp	.LBB31_3
.LBB31_5:
	movb	$0, 70(%rsp)
	movq	16(%rsp), %rax
	movq	%rax, 32(%rsp)
	jmp	.LBB31_8
	.cfi_def_cfa_offset 8
	ud2
.LBB31_7:
	.cfi_def_cfa_offset 96
	movb	$0, 71(%rsp)
	movq	24(%rsp), %rax
	movq	%rax, 32(%rsp)
.LBB31_8:
	testb	$1, 71(%rsp)
	jne	.LBB31_12
.LBB31_9:
	testb	$1, 70(%rsp)
	jne	.LBB31_13
.LBB31_10:
	movq	32(%rsp), %rax
	addq	$88, %rsp
	.cfi_def_cfa_offset 8
	retq
.LBB31_11:
	.cfi_def_cfa_offset 96
	movb	$0, 70(%rsp)
	jmp	.LBB31_1
.LBB31_12:
	movb	$0, 71(%rsp)
	jmp	.LBB31_9
.LBB31_13:
	movb	$0, 70(%rsp)
	jmp	.LBB31_10
.LBB31_14:
.Ltmp32:
	movq	%rax, 72(%rsp)
	movl	%edx, 80(%rsp)
	jmp	.LBB31_4
.Lfunc_end31:
	.size	_ZN4core3cmp6max_by17h4188bc4c0bc5111dE, .Lfunc_end31-_ZN4core3cmp6max_by17h4188bc4c0bc5111dE
	.cfi_endproc
	.section	.gcc_except_table,"a",@progbits
	.p2align	2
GCC_except_table31:
.Lexception3:
	.byte	255
	.byte	255
	.byte	1
	.uleb128 .Lcst_end3-.Lcst_begin3
.Lcst_begin3:
	.uleb128 .Ltmp30-.Lfunc_begin3
	.uleb128 .Ltmp31-.Ltmp30
	.uleb128 .Ltmp32-.Lfunc_begin3
	.byte	0
	.uleb128 .Ltmp31-.Lfunc_begin3
	.uleb128 .Lfunc_end31-.Ltmp31
	.byte	0
	.byte	0
.Lcst_end3:
	.p2align	2

	.section	.text._ZN4core3cmp6min_by17ha52b52630e59b77fE,"ax",@progbits
	.p2align	4, 0x90
	.type	_ZN4core3cmp6min_by17ha52b52630e59b77fE,@function
_ZN4core3cmp6min_by17ha52b52630e59b77fE:
.Lfunc_begin4:
	.cfi_startproc
	.cfi_personality 155, DW.ref.rust_eh_personality
	.cfi_lsda 27, .Lexception4
	subq	$88, %rsp
	.cfi_def_cfa_offset 96
	movq	%rdi, 16(%rsp)
	movq	%rsi, 24(%rsp)
	movb	$0, 70(%rsp)
	movb	$0, 71(%rsp)
	movb	$1, 70(%rsp)
	movb	$1, 71(%rsp)
	leaq	16(%rsp), %rax
	movq	%rax, 48(%rsp)
	leaq	24(%rsp), %rax
	movq	%rax, 56(%rsp)
	movq	48(%rsp), %rdi
	movq	56(%rsp), %rsi
.Ltmp33:
	callq	_ZN4core3ops8function6FnOnce9call_once17h57c49b6c645860ebE
.Ltmp34:
	movb	%al, 15(%rsp)
	jmp	.LBB32_2
.LBB32_1:
	movq	72(%rsp), %rdi
	callq	_Unwind_Resume@PLT
	ud2
.LBB32_2:
	movb	15(%rsp), %al
	movb	%al, 47(%rsp)
	movsbq	47(%rsp), %rcx
	addq	$1, %rcx
	subq	$2, %rcx
	jb	.LBB32_7
	jmp	.LBB32_15
.LBB32_15:
	jmp	.LBB32_5
.LBB32_3:
	testb	$1, 70(%rsp)
	jne	.LBB32_11
	jmp	.LBB32_1
.LBB32_4:
	movb	$0, 71(%rsp)
	jmp	.LBB32_3
.LBB32_5:
	movb	$0, 71(%rsp)
	movq	24(%rsp), %rax
	movq	%rax, 32(%rsp)
	jmp	.LBB32_8
	.cfi_def_cfa_offset 8
	ud2
.LBB32_7:
	.cfi_def_cfa_offset 96
	movb	$0, 70(%rsp)
	movq	16(%rsp), %rax
	movq	%rax, 32(%rsp)
.LBB32_8:
	testb	$1, 71(%rsp)
	jne	.LBB32_12
.LBB32_9:
	testb	$1, 70(%rsp)
	jne	.LBB32_13
.LBB32_10:
	movq	32(%rsp), %rax
	addq	$88, %rsp
	.cfi_def_cfa_offset 8
	retq
.LBB32_11:
	.cfi_def_cfa_offset 96
	movb	$0, 70(%rsp)
	jmp	.LBB32_1
.LBB32_12:
	movb	$0, 71(%rsp)
	jmp	.LBB32_9
.LBB32_13:
	movb	$0, 70(%rsp)
	jmp	.LBB32_10
.LBB32_14:
.Ltmp35:
	movq	%rax, 72(%rsp)
	movl	%edx, 80(%rsp)
	jmp	.LBB32_4
.Lfunc_end32:
	.size	_ZN4core3cmp6min_by17ha52b52630e59b77fE, .Lfunc_end32-_ZN4core3cmp6min_by17ha52b52630e59b77fE
	.cfi_endproc
	.section	.gcc_except_table,"a",@progbits
	.p2align	2
GCC_except_table32:
.Lexception4:
	.byte	255
	.byte	255
	.byte	1
	.uleb128 .Lcst_end4-.Lcst_begin4
.Lcst_begin4:
	.uleb128 .Ltmp33-.Lfunc_begin4
	.uleb128 .Ltmp34-.Ltmp33
	.uleb128 .Ltmp35-.Lfunc_begin4
	.byte	0
	.uleb128 .Ltmp34-.Lfunc_begin4
	.uleb128 .Lfunc_end32-.Ltmp34
	.byte	0
	.byte	0
.Lcst_end4:
	.p2align	2

	.section	.text._ZN4core3fmt10ArgumentV13new17h0b3903c09ee5c37dE,"ax",@progbits
	.p2align	4, 0x90
	.type	_ZN4core3fmt10ArgumentV13new17h0b3903c09ee5c37dE,@function
_ZN4core3fmt10ArgumentV13new17h0b3903c09ee5c37dE:
	.cfi_startproc
	subq	$56, %rsp
	.cfi_def_cfa_offset 64
	movq	%rsi, 40(%rsp)
	movq	40(%rsp), %rax
	movq	%rdi, 16(%rsp)
	movq	%rax, 8(%rsp)
	movq	16(%rsp), %rax
	movq	%rax, 48(%rsp)
	movq	48(%rsp), %rcx
	movq	%rcx, (%rsp)
	movq	(%rsp), %rax
	movq	%rax, 24(%rsp)
	movq	8(%rsp), %rcx
	movq	%rcx, 32(%rsp)
	movq	24(%rsp), %rax
	movq	32(%rsp), %rdx
	addq	$56, %rsp
	.cfi_def_cfa_offset 8
	retq
.Lfunc_end33:
	.size	_ZN4core3fmt10ArgumentV13new17h0b3903c09ee5c37dE, .Lfunc_end33-_ZN4core3fmt10ArgumentV13new17h0b3903c09ee5c37dE
	.cfi_endproc

	.section	.text._ZN4core3fmt10ArgumentV13new17h2f8e0b0bcc9ce8f0E,"ax",@progbits
	.p2align	4, 0x90
	.type	_ZN4core3fmt10ArgumentV13new17h2f8e0b0bcc9ce8f0E,@function
_ZN4core3fmt10ArgumentV13new17h2f8e0b0bcc9ce8f0E:
	.cfi_startproc
	subq	$56, %rsp
	.cfi_def_cfa_offset 64
	movq	%rsi, 40(%rsp)
	movq	40(%rsp), %rax
	movq	%rdi, 16(%rsp)
	movq	%rax, 8(%rsp)
	movq	16(%rsp), %rax
	movq	%rax, 48(%rsp)
	movq	48(%rsp), %rcx
	movq	%rcx, (%rsp)
	movq	(%rsp), %rax
	movq	%rax, 24(%rsp)
	movq	8(%rsp), %rcx
	movq	%rcx, 32(%rsp)
	movq	24(%rsp), %rax
	movq	32(%rsp), %rdx
	addq	$56, %rsp
	.cfi_def_cfa_offset 8
	retq
.Lfunc_end34:
	.size	_ZN4core3fmt10ArgumentV13new17h2f8e0b0bcc9ce8f0E, .Lfunc_end34-_ZN4core3fmt10ArgumentV13new17h2f8e0b0bcc9ce8f0E
	.cfi_endproc

	.section	.text._ZN4core3fmt10ArgumentV13new17h855fd7f9c37ef202E,"ax",@progbits
	.p2align	4, 0x90
	.type	_ZN4core3fmt10ArgumentV13new17h855fd7f9c37ef202E,@function
_ZN4core3fmt10ArgumentV13new17h855fd7f9c37ef202E:
	.cfi_startproc
	subq	$56, %rsp
	.cfi_def_cfa_offset 64
	movq	%rsi, 40(%rsp)
	movq	40(%rsp), %rax
	movq	%rdi, 16(%rsp)
	movq	%rax, 8(%rsp)
	movq	16(%rsp), %rax
	movq	%rax, 48(%rsp)
	movq	48(%rsp), %rcx
	movq	%rcx, (%rsp)
	movq	(%rsp), %rax
	movq	%rax, 24(%rsp)
	movq	8(%rsp), %rcx
	movq	%rcx, 32(%rsp)
	movq	24(%rsp), %rax
	movq	32(%rsp), %rdx
	addq	$56, %rsp
	.cfi_def_cfa_offset 8
	retq
.Lfunc_end35:
	.size	_ZN4core3fmt10ArgumentV13new17h855fd7f9c37ef202E, .Lfunc_end35-_ZN4core3fmt10ArgumentV13new17h855fd7f9c37ef202E
	.cfi_endproc

	.section	.text._ZN4core3fmt10ArgumentV13new17haa72e6c10e1f8682E,"ax",@progbits
	.p2align	4, 0x90
	.type	_ZN4core3fmt10ArgumentV13new17haa72e6c10e1f8682E,@function
_ZN4core3fmt10ArgumentV13new17haa72e6c10e1f8682E:
	.cfi_startproc
	subq	$56, %rsp
	.cfi_def_cfa_offset 64
	movq	%rsi, 40(%rsp)
	movq	40(%rsp), %rax
	movq	%rdi, 16(%rsp)
	movq	%rax, 8(%rsp)
	movq	16(%rsp), %rax
	movq	%rax, 48(%rsp)
	movq	48(%rsp), %rcx
	movq	%rcx, (%rsp)
	movq	(%rsp), %rax
	movq	%rax, 24(%rsp)
	movq	8(%rsp), %rcx
	movq	%rcx, 32(%rsp)
	movq	24(%rsp), %rax
	movq	32(%rsp), %rdx
	addq	$56, %rsp
	.cfi_def_cfa_offset 8
	retq
.Lfunc_end36:
	.size	_ZN4core3fmt10ArgumentV13new17haa72e6c10e1f8682E, .Lfunc_end36-_ZN4core3fmt10ArgumentV13new17haa72e6c10e1f8682E
	.cfi_endproc

	.section	.text._ZN4core3fmt10ArgumentV13new17hb26e360a54aa0e0dE,"ax",@progbits
	.p2align	4, 0x90
	.type	_ZN4core3fmt10ArgumentV13new17hb26e360a54aa0e0dE,@function
_ZN4core3fmt10ArgumentV13new17hb26e360a54aa0e0dE:
	.cfi_startproc
	subq	$56, %rsp
	.cfi_def_cfa_offset 64
	movq	%rsi, 40(%rsp)
	movq	40(%rsp), %rax
	movq	%rdi, 16(%rsp)
	movq	%rax, 8(%rsp)
	movq	16(%rsp), %rax
	movq	%rax, 48(%rsp)
	movq	48(%rsp), %rcx
	movq	%rcx, (%rsp)
	movq	(%rsp), %rax
	movq	%rax, 24(%rsp)
	movq	8(%rsp), %rcx
	movq	%rcx, 32(%rsp)
	movq	24(%rsp), %rax
	movq	32(%rsp), %rdx
	addq	$56, %rsp
	.cfi_def_cfa_offset 8
	retq
.Lfunc_end37:
	.size	_ZN4core3fmt10ArgumentV13new17hb26e360a54aa0e0dE, .Lfunc_end37-_ZN4core3fmt10ArgumentV13new17hb26e360a54aa0e0dE
	.cfi_endproc

	.section	.text._ZN4core3fmt10ArgumentV13new17hc07455aecfe9ac85E,"ax",@progbits
	.p2align	4, 0x90
	.type	_ZN4core3fmt10ArgumentV13new17hc07455aecfe9ac85E,@function
_ZN4core3fmt10ArgumentV13new17hc07455aecfe9ac85E:
	.cfi_startproc
	subq	$56, %rsp
	.cfi_def_cfa_offset 64
	movq	%rsi, 40(%rsp)
	movq	40(%rsp), %rax
	movq	%rdi, 16(%rsp)
	movq	%rax, 8(%rsp)
	movq	16(%rsp), %rax
	movq	%rax, 48(%rsp)
	movq	48(%rsp), %rcx
	movq	%rcx, (%rsp)
	movq	(%rsp), %rax
	movq	%rax, 24(%rsp)
	movq	8(%rsp), %rcx
	movq	%rcx, 32(%rsp)
	movq	24(%rsp), %rax
	movq	32(%rsp), %rdx
	addq	$56, %rsp
	.cfi_def_cfa_offset 8
	retq
.Lfunc_end38:
	.size	_ZN4core3fmt10ArgumentV13new17hc07455aecfe9ac85E, .Lfunc_end38-_ZN4core3fmt10ArgumentV13new17hc07455aecfe9ac85E
	.cfi_endproc

	.section	.text._ZN4core3fmt10ArgumentV13new17he30e4adb48a2c7cdE,"ax",@progbits
	.p2align	4, 0x90
	.type	_ZN4core3fmt10ArgumentV13new17he30e4adb48a2c7cdE,@function
_ZN4core3fmt10ArgumentV13new17he30e4adb48a2c7cdE:
	.cfi_startproc
	subq	$56, %rsp
	.cfi_def_cfa_offset 64
	movq	%rsi, 40(%rsp)
	movq	40(%rsp), %rax
	movq	%rdi, 16(%rsp)
	movq	%rax, 8(%rsp)
	movq	16(%rsp), %rax
	movq	%rax, 48(%rsp)
	movq	48(%rsp), %rcx
	movq	%rcx, (%rsp)
	movq	(%rsp), %rax
	movq	%rax, 24(%rsp)
	movq	8(%rsp), %rcx
	movq	%rcx, 32(%rsp)
	movq	24(%rsp), %rax
	movq	32(%rsp), %rdx
	addq	$56, %rsp
	.cfi_def_cfa_offset 8
	retq
.Lfunc_end39:
	.size	_ZN4core3fmt10ArgumentV13new17he30e4adb48a2c7cdE, .Lfunc_end39-_ZN4core3fmt10ArgumentV13new17he30e4adb48a2c7cdE
	.cfi_endproc

	.section	".text._ZN4core3fmt3num50_$LT$impl$u20$core..fmt..Debug$u20$for$u20$i32$GT$3fmt17h8112bb988b7ec620E","ax",@progbits
	.p2align	4, 0x90
	.type	_ZN4core3fmt3num50_$LT$impl$u20$core..fmt..Debug$u20$for$u20$i32$GT$3fmt17h8112bb988b7ec620E,@function
_ZN4core3fmt3num50_$LT$impl$u20$core..fmt..Debug$u20$for$u20$i32$GT$3fmt17h8112bb988b7ec620E:
	.cfi_startproc
	subq	$40, %rsp
	.cfi_def_cfa_offset 48
	movq	%rdi, 24(%rsp)
	movq	%rsi, %rdi
	movq	%rsi, 16(%rsp)
	callq	*_ZN4core3fmt9Formatter15debug_lower_hex17h4cbe211c5574c341E@GOTPCREL(%rip)
	movb	%al, 15(%rsp)
	movb	15(%rsp), %al
	testb	$1, %al
	jne	.LBB40_3
	jmp	.LBB40_2
.LBB40_2:
	movq	16(%rsp), %rdi
	callq	*_ZN4core3fmt9Formatter15debug_upper_hex17hbdd20d598a5a0088E@GOTPCREL(%rip)
	movb	%al, 14(%rsp)
	jmp	.LBB40_5
.LBB40_3:
	movq	24(%rsp), %rdi
	movq	16(%rsp), %rsi
	callq	*_ZN4core3fmt3num53_$LT$impl$u20$core..fmt..LowerHex$u20$for$u20$i32$GT$3fmt17h7358166444444c75E@GOTPCREL(%rip)
	andb	$1, %al
	movb	%al, 39(%rsp)
	jmp	.LBB40_11
.LBB40_5:
	movb	14(%rsp), %al
	testb	$1, %al
	jne	.LBB40_7
	jmp	.LBB40_6
.LBB40_6:
	movq	24(%rsp), %rdi
	movq	16(%rsp), %rsi
	callq	*_ZN4core3fmt3num3imp52_$LT$impl$u20$core..fmt..Display$u20$for$u20$i32$GT$3fmt17h4a5249bafd9204fbE@GOTPCREL(%rip)
	andb	$1, %al
	movb	%al, 39(%rsp)
	jmp	.LBB40_9
.LBB40_7:
	movq	24(%rsp), %rdi
	movq	16(%rsp), %rsi
	callq	*_ZN4core3fmt3num53_$LT$impl$u20$core..fmt..UpperHex$u20$for$u20$i32$GT$3fmt17hfb9c81d73555febeE@GOTPCREL(%rip)
	andb	$1, %al
	movb	%al, 39(%rsp)
	jmp	.LBB40_10
.LBB40_9:
	jmp	.LBB40_10
.LBB40_10:
	jmp	.LBB40_11
.LBB40_11:
	movb	39(%rsp), %al
	andb	$1, %al
	movzbl	%al, %eax
	addq	$40, %rsp
	.cfi_def_cfa_offset 8
	retq
.Lfunc_end40:
	.size	_ZN4core3fmt3num50_$LT$impl$u20$core..fmt..Debug$u20$for$u20$i32$GT$3fmt17h8112bb988b7ec620E, .Lfunc_end40-_ZN4core3fmt3num50_$LT$impl$u20$core..fmt..Debug$u20$for$u20$i32$GT$3fmt17h8112bb988b7ec620E
	.cfi_endproc

	.section	".text._ZN4core3fmt3num52_$LT$impl$u20$core..fmt..Debug$u20$for$u20$usize$GT$3fmt17h9aeaf5d18699563fE","ax",@progbits
	.p2align	4, 0x90
	.type	_ZN4core3fmt3num52_$LT$impl$u20$core..fmt..Debug$u20$for$u20$usize$GT$3fmt17h9aeaf5d18699563fE,@function
_ZN4core3fmt3num52_$LT$impl$u20$core..fmt..Debug$u20$for$u20$usize$GT$3fmt17h9aeaf5d18699563fE:
	.cfi_startproc
	subq	$40, %rsp
	.cfi_def_cfa_offset 48
	movq	%rdi, 24(%rsp)
	movq	%rsi, %rdi
	movq	%rsi, 16(%rsp)
	callq	*_ZN4core3fmt9Formatter15debug_lower_hex17h4cbe211c5574c341E@GOTPCREL(%rip)
	movb	%al, 15(%rsp)
	movb	15(%rsp), %al
	testb	$1, %al
	jne	.LBB41_3
	jmp	.LBB41_2
.LBB41_2:
	movq	16(%rsp), %rdi
	callq	*_ZN4core3fmt9Formatter15debug_upper_hex17hbdd20d598a5a0088E@GOTPCREL(%rip)
	movb	%al, 14(%rsp)
	jmp	.LBB41_5
.LBB41_3:
	movq	24(%rsp), %rdi
	movq	16(%rsp), %rsi
	callq	*_ZN4core3fmt3num55_$LT$impl$u20$core..fmt..LowerHex$u20$for$u20$usize$GT$3fmt17ha49de5d40246960eE@GOTPCREL(%rip)
	andb	$1, %al
	movb	%al, 39(%rsp)
	jmp	.LBB41_11
.LBB41_5:
	movb	14(%rsp), %al
	testb	$1, %al
	jne	.LBB41_7
	jmp	.LBB41_6
.LBB41_6:
	movq	24(%rsp), %rdi
	movq	16(%rsp), %rsi
	callq	*_ZN4core3fmt3num3imp54_$LT$impl$u20$core..fmt..Display$u20$for$u20$usize$GT$3fmt17hed425a190ef97ab4E@GOTPCREL(%rip)
	andb	$1, %al
	movb	%al, 39(%rsp)
	jmp	.LBB41_9
.LBB41_7:
	movq	24(%rsp), %rdi
	movq	16(%rsp), %rsi
	callq	*_ZN4core3fmt3num55_$LT$impl$u20$core..fmt..UpperHex$u20$for$u20$usize$GT$3fmt17hdeb9da74b7550f15E@GOTPCREL(%rip)
	andb	$1, %al
	movb	%al, 39(%rsp)
	jmp	.LBB41_10
.LBB41_9:
	jmp	.LBB41_10
.LBB41_10:
	jmp	.LBB41_11
.LBB41_11:
	movb	39(%rsp), %al
	andb	$1, %al
	movzbl	%al, %eax
	addq	$40, %rsp
	.cfi_def_cfa_offset 8
	retq
.Lfunc_end41:
	.size	_ZN4core3fmt3num52_$LT$impl$u20$core..fmt..Debug$u20$for$u20$usize$GT$3fmt17h9aeaf5d18699563fE, .Lfunc_end41-_ZN4core3fmt3num52_$LT$impl$u20$core..fmt..Debug$u20$for$u20$usize$GT$3fmt17h9aeaf5d18699563fE
	.cfi_endproc

	.section	.text._ZN4core3fmt8builders9DebugList7entries17he89cd873fa7e1286E,"ax",@progbits
	.p2align	4, 0x90
	.type	_ZN4core3fmt8builders9DebugList7entries17he89cd873fa7e1286E,@function
_ZN4core3fmt8builders9DebugList7entries17he89cd873fa7e1286E:
.Lfunc_begin5:
	.cfi_startproc
	.cfi_personality 155, DW.ref.rust_eh_personality
	.cfi_lsda 27, .Lexception5
	subq	$88, %rsp
	.cfi_def_cfa_offset 96
	movb	$0, 71(%rsp)
	movq	%rdi, 24(%rsp)
	movq	%rsi, %rdi
	movq	%rdx, %rsi
	callq	_ZN63_$LT$I$u20$as$u20$core..iter..traits..collect..IntoIterator$GT$9into_iter17hd8492fcfa6ee5ca9E
	movq	%rax, 16(%rsp)
	movq	%rdx, 8(%rsp)
	jmp	.LBB42_2
.LBB42_1:
	movq	72(%rsp), %rdi
	callq	_Unwind_Resume@PLT
	ud2
.LBB42_2:
	movq	16(%rsp), %rax
	movq	%rax, 32(%rsp)
	movq	8(%rsp), %rcx
	movq	%rcx, 40(%rsp)
.LBB42_3:
.Ltmp36:
	leaq	32(%rsp), %rdi
	callq	_ZN85_$LT$core..slice..Iter$LT$T$GT$$u20$as$u20$core..iter..traits..iterator..Iterator$GT$4next17hefe725ddb690eeecE
.Ltmp37:
	movq	%rax, (%rsp)
	jmp	.LBB42_5
.LBB42_4:
	jmp	.LBB42_1
.LBB42_5:
	movq	(%rsp), %rax
	movq	%rax, 48(%rsp)
	movq	48(%rsp), %rcx
	testq	%rcx, %rcx
	setne	%dl
	movzbl	%dl, %esi
	movl	%esi, %ecx
	je	.LBB42_6
	jmp	.LBB42_18
.LBB42_18:
	jmp	.LBB42_8
.LBB42_6:
	jmp	.LBB42_9
	.cfi_def_cfa_offset 8
	ud2
.LBB42_8:
	.cfi_def_cfa_offset 96
	movq	48(%rsp), %rax
	movb	$1, 71(%rsp)
	movb	$0, 71(%rsp)
	movq	%rax, 56(%rsp)
.Ltmp39:
	leaq	.L__unnamed_4(%rip), %rdx
	movq	_ZN4core3fmt8builders9DebugList5entry17h7b672cf203d283cdE@GOTPCREL(%rip), %rax
	leaq	56(%rsp), %rsi
	movq	24(%rsp), %rdi
	callq	*%rax
.Ltmp40:
	jmp	.LBB42_10
.LBB42_9:
	movb	$0, 71(%rsp)
	jmp	.LBB42_13
.LBB42_10:
	jmp	.LBB42_12
.LBB42_11:
	jmp	.LBB42_15
.LBB42_12:
	movb	$0, 71(%rsp)
	jmp	.LBB42_3
.LBB42_13:
	movq	24(%rsp), %rax
	addq	$88, %rsp
	.cfi_def_cfa_offset 8
	retq
.LBB42_14:
	.cfi_def_cfa_offset 96
	movb	$0, 71(%rsp)
	jmp	.LBB42_4
.LBB42_15:
	testb	$1, 71(%rsp)
	jne	.LBB42_14
	jmp	.LBB42_4
.LBB42_16:
.Ltmp38:
	movq	%rax, 72(%rsp)
	movl	%edx, 80(%rsp)
	jmp	.LBB42_15
.LBB42_17:
.Ltmp41:
	movq	%rax, 72(%rsp)
	movl	%edx, 80(%rsp)
	jmp	.LBB42_11
.Lfunc_end42:
	.size	_ZN4core3fmt8builders9DebugList7entries17he89cd873fa7e1286E, .Lfunc_end42-_ZN4core3fmt8builders9DebugList7entries17he89cd873fa7e1286E
	.cfi_endproc
	.section	.gcc_except_table,"a",@progbits
	.p2align	2
GCC_except_table42:
.Lexception5:
	.byte	255
	.byte	255
	.byte	1
	.uleb128 .Lcst_end5-.Lcst_begin5
.Lcst_begin5:
	.uleb128 .Lfunc_begin5-.Lfunc_begin5
	.uleb128 .Ltmp36-.Lfunc_begin5
	.byte	0
	.byte	0
	.uleb128 .Ltmp36-.Lfunc_begin5
	.uleb128 .Ltmp37-.Ltmp36
	.uleb128 .Ltmp38-.Lfunc_begin5
	.byte	0
	.uleb128 .Ltmp39-.Lfunc_begin5
	.uleb128 .Ltmp40-.Ltmp39
	.uleb128 .Ltmp41-.Lfunc_begin5
	.byte	0
.Lcst_end5:
	.p2align	2

	.section	.text._ZN4core3fmt9Arguments6new_v117h293a5dc5f81480fbE,"ax",@progbits
	.p2align	4, 0x90
	.type	_ZN4core3fmt9Arguments6new_v117h293a5dc5f81480fbE,@function
_ZN4core3fmt9Arguments6new_v117h293a5dc5f81480fbE:
	.cfi_startproc
	subq	$16, %rsp
	.cfi_def_cfa_offset 24
	movq	%rdi, %rax
	movq	$0, (%rsp)
	movq	%rsi, (%rdi)
	movq	%rdx, 8(%rdi)
	movq	(%rsp), %rdx
	movq	8(%rsp), %rsi
	movq	%rdx, 16(%rdi)
	movq	%rsi, 24(%rdi)
	movq	%rcx, 32(%rdi)
	movq	%r8, 40(%rdi)
	addq	$16, %rsp
	.cfi_def_cfa_offset 8
	retq
.Lfunc_end43:
	.size	_ZN4core3fmt9Arguments6new_v117h293a5dc5f81480fbE, .Lfunc_end43-_ZN4core3fmt9Arguments6new_v117h293a5dc5f81480fbE
	.cfi_endproc

	.section	.text._ZN4core3mem11size_of_val17h5901e1f5d7510c2eE,"ax",@progbits
	.p2align	4, 0x90
	.type	_ZN4core3mem11size_of_val17h5901e1f5d7510c2eE,@function
_ZN4core3mem11size_of_val17h5901e1f5d7510c2eE:
	.cfi_startproc
	subq	$16, %rsp
	.cfi_def_cfa_offset 24
	shlq	$2, %rsi
	movq	%rsi, 8(%rsp)
	movq	8(%rsp), %rax
	movq	%rax, (%rsp)
	movq	(%rsp), %rax
	addq	$16, %rsp
	.cfi_def_cfa_offset 8
	retq
.Lfunc_end44:
	.size	_ZN4core3mem11size_of_val17h5901e1f5d7510c2eE, .Lfunc_end44-_ZN4core3mem11size_of_val17h5901e1f5d7510c2eE
	.cfi_endproc

	.section	.text._ZN4core3mem4swap17h4084dd4196c6e5bfE,"ax",@progbits
	.p2align	4, 0x90
	.type	_ZN4core3mem4swap17h4084dd4196c6e5bfE,@function
_ZN4core3mem4swap17h4084dd4196c6e5bfE:
	.cfi_startproc
	pushq	%rax
	.cfi_def_cfa_offset 16
	callq	_ZN4core3ptr23swap_nonoverlapping_one17h8ec6b83bad434a6aE
	popq	%rax
	.cfi_def_cfa_offset 8
	retq
.Lfunc_end45:
	.size	_ZN4core3mem4swap17h4084dd4196c6e5bfE, .Lfunc_end45-_ZN4core3mem4swap17h4084dd4196c6e5bfE
	.cfi_endproc

	.section	.text._ZN4core3mem4swap17hf0e442a479615e84E,"ax",@progbits
	.p2align	4, 0x90
	.type	_ZN4core3mem4swap17hf0e442a479615e84E,@function
_ZN4core3mem4swap17hf0e442a479615e84E:
	.cfi_startproc
	pushq	%rax
	.cfi_def_cfa_offset 16
	callq	_ZN4core3ptr23swap_nonoverlapping_one17hab756867da515918E
	popq	%rax
	.cfi_def_cfa_offset 8
	retq
.Lfunc_end46:
	.size	_ZN4core3mem4swap17hf0e442a479615e84E, .Lfunc_end46-_ZN4core3mem4swap17hf0e442a479615e84E
	.cfi_endproc

	.section	.text._ZN4core3mem4take17h0177a3e70046a338E,"ax",@progbits
	.p2align	4, 0x90
	.type	_ZN4core3mem4take17h0177a3e70046a338E,@function
_ZN4core3mem4take17h0177a3e70046a338E:
	.cfi_startproc
	subq	$40, %rsp
	.cfi_def_cfa_offset 48
	movq	%rdi, 32(%rsp)
	callq	_ZN72_$LT$core..option..Option$LT$T$GT$$u20$as$u20$core..default..Default$GT$7default17h6740f7c4d3cbc957E
	movq	%rax, 24(%rsp)
	movq	%rdx, 16(%rsp)
	movq	32(%rsp), %rdi
	movq	24(%rsp), %rsi
	movq	16(%rsp), %rdx
	callq	_ZN4core3mem7replace17h18157c32b0d87a00E
	movq	%rax, 8(%rsp)
	movq	%rdx, (%rsp)
	movq	8(%rsp), %rax
	movq	(%rsp), %rdx
	addq	$40, %rsp
	.cfi_def_cfa_offset 8
	retq
.Lfunc_end47:
	.size	_ZN4core3mem4take17h0177a3e70046a338E, .Lfunc_end47-_ZN4core3mem4take17h0177a3e70046a338E
	.cfi_endproc

	.section	.text._ZN4core3mem7replace17h18157c32b0d87a00E,"ax",@progbits
	.p2align	4, 0x90
	.type	_ZN4core3mem7replace17h18157c32b0d87a00E,@function
_ZN4core3mem7replace17h18157c32b0d87a00E:
.Lfunc_begin6:
	.cfi_startproc
	.cfi_personality 155, DW.ref.rust_eh_personality
	.cfi_lsda 27, .Lexception6
	subq	$40, %rsp
	.cfi_def_cfa_offset 48
	movq	%rsi, 8(%rsp)
	movq	%rdx, 16(%rsp)
.Ltmp42:
	leaq	8(%rsp), %rsi
	callq	_ZN4core3mem4swap17hf0e442a479615e84E
.Ltmp43:
	jmp	.LBB48_2
.LBB48_1:
	movq	24(%rsp), %rdi
	callq	_Unwind_Resume@PLT
	ud2
.LBB48_2:
	movq	8(%rsp), %rax
	movq	16(%rsp), %rdx
	addq	$40, %rsp
	.cfi_def_cfa_offset 8
	retq
.LBB48_3:
	.cfi_def_cfa_offset 48
	jmp	.LBB48_1
.LBB48_4:
.Ltmp44:
	movq	%rax, 24(%rsp)
	movl	%edx, 32(%rsp)
	jmp	.LBB48_3
.Lfunc_end48:
	.size	_ZN4core3mem7replace17h18157c32b0d87a00E, .Lfunc_end48-_ZN4core3mem7replace17h18157c32b0d87a00E
	.cfi_endproc
	.section	.gcc_except_table,"a",@progbits
	.p2align	2
GCC_except_table48:
.Lexception6:
	.byte	255
	.byte	255
	.byte	1
	.uleb128 .Lcst_end6-.Lcst_begin6
.Lcst_begin6:
	.uleb128 .Ltmp42-.Lfunc_begin6
	.uleb128 .Ltmp43-.Ltmp42
	.uleb128 .Ltmp44-.Lfunc_begin6
	.byte	0
	.uleb128 .Ltmp43-.Lfunc_begin6
	.uleb128 .Lfunc_end48-.Ltmp43
	.byte	0
	.byte	0
.Lcst_end6:
	.p2align	2

	.section	.text._ZN4core3mem7replace17heb7b6f6d3a6a53b6E,"ax",@progbits
	.p2align	4, 0x90
	.type	_ZN4core3mem7replace17heb7b6f6d3a6a53b6E,@function
_ZN4core3mem7replace17heb7b6f6d3a6a53b6E:
.Lfunc_begin7:
	.cfi_startproc
	.cfi_personality 155, DW.ref.rust_eh_personality
	.cfi_lsda 27, .Lexception7
	subq	$24, %rsp
	.cfi_def_cfa_offset 32
	movq	%rsi, (%rsp)
.Ltmp45:
	movq	%rsp, %rsi
	callq	_ZN4core3mem4swap17h4084dd4196c6e5bfE
.Ltmp46:
	jmp	.LBB49_2
.LBB49_1:
	movq	8(%rsp), %rdi
	callq	_Unwind_Resume@PLT
	ud2
.LBB49_2:
	movq	(%rsp), %rax
	addq	$24, %rsp
	.cfi_def_cfa_offset 8
	retq
.LBB49_3:
	.cfi_def_cfa_offset 32
	jmp	.LBB49_1
.LBB49_4:
.Ltmp47:
	movq	%rax, 8(%rsp)
	movl	%edx, 16(%rsp)
	jmp	.LBB49_3
.Lfunc_end49:
	.size	_ZN4core3mem7replace17heb7b6f6d3a6a53b6E, .Lfunc_end49-_ZN4core3mem7replace17heb7b6f6d3a6a53b6E
	.cfi_endproc
	.section	.gcc_except_table,"a",@progbits
	.p2align	2
GCC_except_table49:
.Lexception7:
	.byte	255
	.byte	255
	.byte	1
	.uleb128 .Lcst_end7-.Lcst_begin7
.Lcst_begin7:
	.uleb128 .Ltmp45-.Lfunc_begin7
	.uleb128 .Ltmp46-.Ltmp45
	.uleb128 .Ltmp47-.Lfunc_begin7
	.byte	0
	.uleb128 .Ltmp46-.Lfunc_begin7
	.uleb128 .Lfunc_end49-.Ltmp46
	.byte	0
	.byte	0
.Lcst_end7:
	.p2align	2

	.section	.text._ZN4core3num12NonZeroUsize13new_unchecked17h5d15e2bfce3adba2E,"ax",@progbits
	.p2align	4, 0x90
	.type	_ZN4core3num12NonZeroUsize13new_unchecked17h5d15e2bfce3adba2E,@function
_ZN4core3num12NonZeroUsize13new_unchecked17h5d15e2bfce3adba2E:
	.cfi_startproc
	pushq	%rax
	.cfi_def_cfa_offset 16
	movq	%rdi, (%rsp)
	movq	(%rsp), %rax
	popq	%rcx
	.cfi_def_cfa_offset 8
	retq
.Lfunc_end50:
	.size	_ZN4core3num12NonZeroUsize13new_unchecked17h5d15e2bfce3adba2E, .Lfunc_end50-_ZN4core3num12NonZeroUsize13new_unchecked17h5d15e2bfce3adba2E
	.cfi_endproc

	.section	.text._ZN4core3num12NonZeroUsize3get17h0de7a89a1032061eE,"ax",@progbits
	.p2align	4, 0x90
	.type	_ZN4core3num12NonZeroUsize3get17h0de7a89a1032061eE,@function
_ZN4core3num12NonZeroUsize3get17h0de7a89a1032061eE:
	.cfi_startproc
	movq	%rdi, %rax
	retq
.Lfunc_end51:
	.size	_ZN4core3num12NonZeroUsize3get17h0de7a89a1032061eE, .Lfunc_end51-_ZN4core3num12NonZeroUsize3get17h0de7a89a1032061eE
	.cfi_endproc

	.section	".text._ZN4core3num23_$LT$impl$u20$usize$GT$10count_ones17he66d2c6fb4a28478E","ax",@progbits
	.p2align	4, 0x90
	.type	_ZN4core3num23_$LT$impl$u20$usize$GT$10count_ones17he66d2c6fb4a28478E,@function
_ZN4core3num23_$LT$impl$u20$usize$GT$10count_ones17he66d2c6fb4a28478E:
	.cfi_startproc
	subq	$16, %rsp
	.cfi_def_cfa_offset 24
	movq	%rdi, %rax
	shrq	%rax
	movabsq	$6148914691236517205, %rcx
	andq	%rcx, %rax
	subq	%rax, %rdi
	movabsq	$3689348814741910323, %rax
	movq	%rdi, %rcx
	andq	%rax, %rcx
	shrq	$2, %rdi
	andq	%rax, %rdi
	addq	%rdi, %rcx
	movq	%rcx, %rax
	shrq	$4, %rax
	addq	%rax, %rcx
	movabsq	$1085102592571150095, %rax
	andq	%rax, %rcx
	movabsq	$72340172838076673, %rax
	imulq	%rax, %rcx
	shrq	$56, %rcx
	movq	%rcx, 8(%rsp)
	movq	8(%rsp), %rax
	movq	%rax, (%rsp)
	movq	(%rsp), %rax
	movl	%eax, %ecx
	movl	%ecx, %eax
	addq	$16, %rsp
	.cfi_def_cfa_offset 8
	retq
.Lfunc_end52:
	.size	_ZN4core3num23_$LT$impl$u20$usize$GT$10count_ones17he66d2c6fb4a28478E, .Lfunc_end52-_ZN4core3num23_$LT$impl$u20$usize$GT$10count_ones17he66d2c6fb4a28478E
	.cfi_endproc

	.section	".text._ZN4core3num23_$LT$impl$u20$usize$GT$11checked_add17hfc003f2835b8e6ecE","ax",@progbits
	.p2align	4, 0x90
	.type	_ZN4core3num23_$LT$impl$u20$usize$GT$11checked_add17hfc003f2835b8e6ecE,@function
_ZN4core3num23_$LT$impl$u20$usize$GT$11checked_add17hfc003f2835b8e6ecE:
	.cfi_startproc
	subq	$40, %rsp
	.cfi_def_cfa_offset 48
	callq	_ZN4core3num23_$LT$impl$u20$usize$GT$15overflowing_add17he6d685d85edd8e8bE
	movq	%rax, 16(%rsp)
	movb	%dl, 15(%rsp)
	movb	15(%rsp), %al
	testb	$1, %al
	jne	.LBB53_3
	jmp	.LBB53_2
.LBB53_2:
	movq	16(%rsp), %rax
	movq	%rax, 32(%rsp)
	movq	$1, 24(%rsp)
	jmp	.LBB53_4
.LBB53_3:
	movq	$0, 24(%rsp)
.LBB53_4:
	movq	24(%rsp), %rax
	movq	32(%rsp), %rdx
	addq	$40, %rsp
	.cfi_def_cfa_offset 8
	retq
.Lfunc_end53:
	.size	_ZN4core3num23_$LT$impl$u20$usize$GT$11checked_add17hfc003f2835b8e6ecE, .Lfunc_end53-_ZN4core3num23_$LT$impl$u20$usize$GT$11checked_add17hfc003f2835b8e6ecE
	.cfi_endproc

	.section	".text._ZN4core3num23_$LT$impl$u20$usize$GT$11checked_mul17he6ced54c7731b6cfE","ax",@progbits
	.p2align	4, 0x90
	.type	_ZN4core3num23_$LT$impl$u20$usize$GT$11checked_mul17he6ced54c7731b6cfE,@function
_ZN4core3num23_$LT$impl$u20$usize$GT$11checked_mul17he6ced54c7731b6cfE:
	.cfi_startproc
	subq	$40, %rsp
	.cfi_def_cfa_offset 48
	callq	_ZN4core3num23_$LT$impl$u20$usize$GT$15overflowing_mul17h2ecd697cbc619a01E
	movq	%rax, 16(%rsp)
	movb	%dl, 15(%rsp)
	movb	15(%rsp), %al
	testb	$1, %al
	jne	.LBB54_3
	jmp	.LBB54_2
.LBB54_2:
	movq	16(%rsp), %rax
	movq	%rax, 32(%rsp)
	movq	$1, 24(%rsp)
	jmp	.LBB54_4
.LBB54_3:
	movq	$0, 24(%rsp)
.LBB54_4:
	movq	24(%rsp), %rax
	movq	32(%rsp), %rdx
	addq	$40, %rsp
	.cfi_def_cfa_offset 8
	retq
.Lfunc_end54:
	.size	_ZN4core3num23_$LT$impl$u20$usize$GT$11checked_mul17he6ced54c7731b6cfE, .Lfunc_end54-_ZN4core3num23_$LT$impl$u20$usize$GT$11checked_mul17he6ced54c7731b6cfE
	.cfi_endproc

	.section	".text._ZN4core3num23_$LT$impl$u20$usize$GT$12wrapping_add17h454d4fd0e1b68355E","ax",@progbits
	.p2align	4, 0x90
	.type	_ZN4core3num23_$LT$impl$u20$usize$GT$12wrapping_add17h454d4fd0e1b68355E,@function
_ZN4core3num23_$LT$impl$u20$usize$GT$12wrapping_add17h454d4fd0e1b68355E:
	.cfi_startproc
	subq	$16, %rsp
	.cfi_def_cfa_offset 24
	addq	%rsi, %rdi
	movq	%rdi, 8(%rsp)
	movq	8(%rsp), %rax
	movq	%rax, (%rsp)
	movq	(%rsp), %rax
	addq	$16, %rsp
	.cfi_def_cfa_offset 8
	retq
.Lfunc_end55:
	.size	_ZN4core3num23_$LT$impl$u20$usize$GT$12wrapping_add17h454d4fd0e1b68355E, .Lfunc_end55-_ZN4core3num23_$LT$impl$u20$usize$GT$12wrapping_add17h454d4fd0e1b68355E
	.cfi_endproc

	.section	".text._ZN4core3num23_$LT$impl$u20$usize$GT$12wrapping_sub17h86c24ee04f06f4f6E","ax",@progbits
	.p2align	4, 0x90
	.type	_ZN4core3num23_$LT$impl$u20$usize$GT$12wrapping_sub17h86c24ee04f06f4f6E,@function
_ZN4core3num23_$LT$impl$u20$usize$GT$12wrapping_sub17h86c24ee04f06f4f6E:
	.cfi_startproc
	subq	$16, %rsp
	.cfi_def_cfa_offset 24
	subq	%rsi, %rdi
	movq	%rdi, 8(%rsp)
	movq	8(%rsp), %rax
	movq	%rax, (%rsp)
	movq	(%rsp), %rax
	addq	$16, %rsp
	.cfi_def_cfa_offset 8
	retq
.Lfunc_end56:
	.size	_ZN4core3num23_$LT$impl$u20$usize$GT$12wrapping_sub17h86c24ee04f06f4f6E, .Lfunc_end56-_ZN4core3num23_$LT$impl$u20$usize$GT$12wrapping_sub17h86c24ee04f06f4f6E
	.cfi_endproc

	.section	".text._ZN4core3num23_$LT$impl$u20$usize$GT$13unchecked_add17h4c95c2ec516bbe4aE","ax",@progbits
	.p2align	4, 0x90
	.type	_ZN4core3num23_$LT$impl$u20$usize$GT$13unchecked_add17h4c95c2ec516bbe4aE,@function
_ZN4core3num23_$LT$impl$u20$usize$GT$13unchecked_add17h4c95c2ec516bbe4aE:
	.cfi_startproc
	subq	$16, %rsp
	.cfi_def_cfa_offset 24
	addq	%rsi, %rdi
	movq	%rdi, 8(%rsp)
	movq	8(%rsp), %rax
	movq	%rax, (%rsp)
	movq	(%rsp), %rax
	addq	$16, %rsp
	.cfi_def_cfa_offset 8
	retq
.Lfunc_end57:
	.size	_ZN4core3num23_$LT$impl$u20$usize$GT$13unchecked_add17h4c95c2ec516bbe4aE, .Lfunc_end57-_ZN4core3num23_$LT$impl$u20$usize$GT$13unchecked_add17h4c95c2ec516bbe4aE
	.cfi_endproc

	.section	".text._ZN4core3num23_$LT$impl$u20$usize$GT$14saturating_add17hd3c87b98abb34311E","ax",@progbits
	.p2align	4, 0x90
	.type	_ZN4core3num23_$LT$impl$u20$usize$GT$14saturating_add17hd3c87b98abb34311E,@function
_ZN4core3num23_$LT$impl$u20$usize$GT$14saturating_add17hd3c87b98abb34311E:
	.cfi_startproc
	subq	$16, %rsp
	.cfi_def_cfa_offset 24
	addq	%rsi, %rdi
	movq	$-1, %rax
	cmovbq	%rax, %rdi
	movq	%rdi, 8(%rsp)
	movq	8(%rsp), %rax
	movq	%rax, (%rsp)
	movq	(%rsp), %rax
	addq	$16, %rsp
	.cfi_def_cfa_offset 8
	retq
.Lfunc_end58:
	.size	_ZN4core3num23_$LT$impl$u20$usize$GT$14saturating_add17hd3c87b98abb34311E, .Lfunc_end58-_ZN4core3num23_$LT$impl$u20$usize$GT$14saturating_add17hd3c87b98abb34311E
	.cfi_endproc

	.section	".text._ZN4core3num23_$LT$impl$u20$usize$GT$15is_power_of_two17h8b19a46142dbec92E","ax",@progbits
	.p2align	4, 0x90
	.type	_ZN4core3num23_$LT$impl$u20$usize$GT$15is_power_of_two17h8b19a46142dbec92E,@function
_ZN4core3num23_$LT$impl$u20$usize$GT$15is_power_of_two17h8b19a46142dbec92E:
	.cfi_startproc
	pushq	%rax
	.cfi_def_cfa_offset 16
	callq	_ZN4core3num23_$LT$impl$u20$usize$GT$10count_ones17he66d2c6fb4a28478E
	movl	%eax, 4(%rsp)
	movl	4(%rsp), %eax
	cmpl	$1, %eax
	sete	%cl
	andb	$1, %cl
	movzbl	%cl, %eax
	popq	%rcx
	.cfi_def_cfa_offset 8
	retq
.Lfunc_end59:
	.size	_ZN4core3num23_$LT$impl$u20$usize$GT$15is_power_of_two17h8b19a46142dbec92E, .Lfunc_end59-_ZN4core3num23_$LT$impl$u20$usize$GT$15is_power_of_two17h8b19a46142dbec92E
	.cfi_endproc

	.section	".text._ZN4core3num23_$LT$impl$u20$usize$GT$15overflowing_add17he6d685d85edd8e8bE","ax",@progbits
	.p2align	4, 0x90
	.type	_ZN4core3num23_$LT$impl$u20$usize$GT$15overflowing_add17he6d685d85edd8e8bE,@function
_ZN4core3num23_$LT$impl$u20$usize$GT$15overflowing_add17he6d685d85edd8e8bE:
	.cfi_startproc
	subq	$48, %rsp
	.cfi_def_cfa_offset 56
	addq	%rsi, %rdi
	setb	%al
	andb	$1, %al
	movq	%rdi, 32(%rsp)
	movb	%al, 40(%rsp)
	movq	32(%rsp), %rcx
	movb	40(%rsp), %al
	movq	%rcx, 8(%rsp)
	movb	%al, 7(%rsp)
	movq	8(%rsp), %rax
	movq	%rax, 16(%rsp)
	movb	7(%rsp), %cl
	andb	$1, %cl
	movb	%cl, 24(%rsp)
	movq	16(%rsp), %rax
	movb	24(%rsp), %dl
	addq	$48, %rsp
	.cfi_def_cfa_offset 8
	retq
.Lfunc_end60:
	.size	_ZN4core3num23_$LT$impl$u20$usize$GT$15overflowing_add17he6d685d85edd8e8bE, .Lfunc_end60-_ZN4core3num23_$LT$impl$u20$usize$GT$15overflowing_add17he6d685d85edd8e8bE
	.cfi_endproc

	.section	".text._ZN4core3num23_$LT$impl$u20$usize$GT$15overflowing_mul17h2ecd697cbc619a01E","ax",@progbits
	.p2align	4, 0x90
	.type	_ZN4core3num23_$LT$impl$u20$usize$GT$15overflowing_mul17h2ecd697cbc619a01E,@function
_ZN4core3num23_$LT$impl$u20$usize$GT$15overflowing_mul17h2ecd697cbc619a01E:
	.cfi_startproc
	subq	$48, %rsp
	.cfi_def_cfa_offset 56
	movq	%rdi, %rax
	mulq	%rsi
	seto	%cl
	andb	$1, %cl
	movq	%rax, 32(%rsp)
	movb	%cl, 40(%rsp)
	movq	32(%rsp), %rax
	movb	40(%rsp), %cl
	movq	%rax, 8(%rsp)
	movb	%cl, 7(%rsp)
	movq	8(%rsp), %rax
	movq	%rax, 16(%rsp)
	movb	7(%rsp), %cl
	andb	$1, %cl
	movb	%cl, 24(%rsp)
	movq	16(%rsp), %rax
	movb	24(%rsp), %dl
	addq	$48, %rsp
	.cfi_def_cfa_offset 8
	retq
.Lfunc_end61:
	.size	_ZN4core3num23_$LT$impl$u20$usize$GT$15overflowing_mul17h2ecd697cbc619a01E, .Lfunc_end61-_ZN4core3num23_$LT$impl$u20$usize$GT$15overflowing_mul17h2ecd697cbc619a01E
	.cfi_endproc

	.section	.text._ZN4core3ops8function5FnMut8call_mut17hf83f66f11d6eef24E,"ax",@progbits
	.p2align	4, 0x90
	.type	_ZN4core3ops8function5FnMut8call_mut17hf83f66f11d6eef24E,@function
_ZN4core3ops8function5FnMut8call_mut17hf83f66f11d6eef24E:
	.cfi_startproc
	subq	$40, %rsp
	.cfi_def_cfa_offset 48
	movq	%rsi, 24(%rsp)
	movq	%rdx, 32(%rsp)
	movq	24(%rsp), %rax
	movq	32(%rsp), %rsi
	movq	%rdi, 16(%rsp)
	movq	%rax, %rdi
	callq	_ZN45_$LT$i64$u20$as$u20$core..ops..arith..Add$GT$3add17hc986cadad304943eE
	movq	%rax, 8(%rsp)
	movq	8(%rsp), %rax
	addq	$40, %rsp
	.cfi_def_cfa_offset 8
	retq
.Lfunc_end62:
	.size	_ZN4core3ops8function5FnMut8call_mut17hf83f66f11d6eef24E, .Lfunc_end62-_ZN4core3ops8function5FnMut8call_mut17hf83f66f11d6eef24E
	.cfi_endproc

	.section	".text._ZN4core3ops8function5impls80_$LT$impl$u20$core..ops..function..FnOnce$LT$A$GT$$u20$for$u20$$RF$mut$u20$F$GT$9call_once17h6b04ecbed733d732E","ax",@progbits
	.p2align	4, 0x90
	.type	_ZN4core3ops8function5impls80_$LT$impl$u20$core..ops..function..FnOnce$LT$A$GT$$u20$for$u20$$RF$mut$u20$F$GT$9call_once17h6b04ecbed733d732E,@function
_ZN4core3ops8function5impls80_$LT$impl$u20$core..ops..function..FnOnce$LT$A$GT$$u20$for$u20$$RF$mut$u20$F$GT$9call_once17h6b04ecbed733d732E:
	.cfi_startproc
	subq	$24, %rsp
	.cfi_def_cfa_offset 32
	movq	%rsi, 16(%rsp)
	movq	16(%rsp), %rsi
	callq	_ZN4main4main28_$u7b$$u7b$closure$u7d$$u7d$17he9ec6729de112a4eE
	movl	%eax, 12(%rsp)
	movl	12(%rsp), %eax
	addq	$24, %rsp
	.cfi_def_cfa_offset 8
	retq
.Lfunc_end63:
	.size	_ZN4core3ops8function5impls80_$LT$impl$u20$core..ops..function..FnOnce$LT$A$GT$$u20$for$u20$$RF$mut$u20$F$GT$9call_once17h6b04ecbed733d732E, .Lfunc_end63-_ZN4core3ops8function5impls80_$LT$impl$u20$core..ops..function..FnOnce$LT$A$GT$$u20$for$u20$$RF$mut$u20$F$GT$9call_once17h6b04ecbed733d732E
	.cfi_endproc

	.section	".text._ZN4core3ops8function6FnOnce40call_once$u7b$$u7b$vtable.shim$u7d$$u7d$17hd65fe89cdf48cd37E","ax",@progbits
	.p2align	4, 0x90
	.type	_ZN4core3ops8function6FnOnce40call_once$u7b$$u7b$vtable.shim$u7d$$u7d$17hd65fe89cdf48cd37E,@function
_ZN4core3ops8function6FnOnce40call_once$u7b$$u7b$vtable.shim$u7d$$u7d$17hd65fe89cdf48cd37E:
	.cfi_startproc
	subq	$24, %rsp
	.cfi_def_cfa_offset 32
	movq	(%rdi), %rdi
	callq	_ZN4core3ops8function6FnOnce9call_once17hdf587eb8ef7d0998E
	movl	%eax, 12(%rsp)
	movl	12(%rsp), %eax
	addq	$24, %rsp
	.cfi_def_cfa_offset 8
	retq
.Lfunc_end64:
	.size	_ZN4core3ops8function6FnOnce40call_once$u7b$$u7b$vtable.shim$u7d$$u7d$17hd65fe89cdf48cd37E, .Lfunc_end64-_ZN4core3ops8function6FnOnce40call_once$u7b$$u7b$vtable.shim$u7d$$u7d$17hd65fe89cdf48cd37E
	.cfi_endproc

	.section	.text._ZN4core3ops8function6FnOnce9call_once17h57c49b6c645860ebE,"ax",@progbits
	.p2align	4, 0x90
	.type	_ZN4core3ops8function6FnOnce9call_once17h57c49b6c645860ebE,@function
_ZN4core3ops8function6FnOnce9call_once17h57c49b6c645860ebE:
	.cfi_startproc
	subq	$24, %rsp
	.cfi_def_cfa_offset 32
	movq	%rdi, 8(%rsp)
	movq	%rsi, 16(%rsp)
	movq	8(%rsp), %rdi
	movq	16(%rsp), %rsi
	callq	_ZN4core3cmp5impls50_$LT$impl$u20$core..cmp..Ord$u20$for$u20$usize$GT$3cmp17heb7cb960ca913b95E
	movb	%al, 7(%rsp)
	movb	7(%rsp), %al
	addq	$24, %rsp
	.cfi_def_cfa_offset 8
	retq
.Lfunc_end65:
	.size	_ZN4core3ops8function6FnOnce9call_once17h57c49b6c645860ebE, .Lfunc_end65-_ZN4core3ops8function6FnOnce9call_once17h57c49b6c645860ebE
	.cfi_endproc

	.section	.text._ZN4core3ops8function6FnOnce9call_once17hdf587eb8ef7d0998E,"ax",@progbits
	.p2align	4, 0x90
	.type	_ZN4core3ops8function6FnOnce9call_once17hdf587eb8ef7d0998E,@function
_ZN4core3ops8function6FnOnce9call_once17hdf587eb8ef7d0998E:
.Lfunc_begin8:
	.cfi_startproc
	.cfi_personality 155, DW.ref.rust_eh_personality
	.cfi_lsda 27, .Lexception8
	subq	$40, %rsp
	.cfi_def_cfa_offset 48
	movq	%rdi, 8(%rsp)
.Ltmp48:
	leaq	8(%rsp), %rdi
	callq	_ZN3std2rt10lang_start28_$u7b$$u7b$closure$u7d$$u7d$17h7b077afa09df024dE
.Ltmp49:
	movl	%eax, 4(%rsp)
	jmp	.LBB66_1
.LBB66_1:
	jmp	.LBB66_2
.LBB66_2:
	movl	4(%rsp), %eax
	addq	$40, %rsp
	.cfi_def_cfa_offset 8
	retq
.LBB66_3:
	.cfi_def_cfa_offset 48
	jmp	.LBB66_4
.LBB66_4:
	movq	24(%rsp), %rdi
	callq	_Unwind_Resume@PLT
	ud2
.LBB66_5:
.Ltmp50:
	movq	%rax, 24(%rsp)
	movl	%edx, 32(%rsp)
	jmp	.LBB66_3
.Lfunc_end66:
	.size	_ZN4core3ops8function6FnOnce9call_once17hdf587eb8ef7d0998E, .Lfunc_end66-_ZN4core3ops8function6FnOnce9call_once17hdf587eb8ef7d0998E
	.cfi_endproc
	.section	.gcc_except_table,"a",@progbits
	.p2align	2
GCC_except_table66:
.Lexception8:
	.byte	255
	.byte	255
	.byte	1
	.uleb128 .Lcst_end8-.Lcst_begin8
.Lcst_begin8:
	.uleb128 .Ltmp48-.Lfunc_begin8
	.uleb128 .Ltmp49-.Ltmp48
	.uleb128 .Ltmp50-.Lfunc_begin8
	.byte	0
	.uleb128 .Ltmp49-.Lfunc_begin8
	.uleb128 .Lfunc_end66-.Ltmp49
	.byte	0
	.byte	0
.Lcst_end8:
	.p2align	2

	.section	.text._ZN4core3ptr13drop_in_place17h17975d2ac7d6415aE,"ax",@progbits
	.p2align	4, 0x90
	.type	_ZN4core3ptr13drop_in_place17h17975d2ac7d6415aE,@function
_ZN4core3ptr13drop_in_place17h17975d2ac7d6415aE:
	.cfi_startproc
	pushq	%rax
	.cfi_def_cfa_offset 16
	callq	_ZN77_$LT$alloc..raw_vec..RawVec$LT$T$C$A$GT$$u20$as$u20$core..ops..drop..Drop$GT$4drop17hf3f910340acd6905E
	popq	%rax
	.cfi_def_cfa_offset 8
	retq
.Lfunc_end67:
	.size	_ZN4core3ptr13drop_in_place17h17975d2ac7d6415aE, .Lfunc_end67-_ZN4core3ptr13drop_in_place17h17975d2ac7d6415aE
	.cfi_endproc

	.section	.text._ZN4core3ptr13drop_in_place17h20059ffeb5edc3abE,"ax",@progbits
	.p2align	4, 0x90
	.type	_ZN4core3ptr13drop_in_place17h20059ffeb5edc3abE,@function
_ZN4core3ptr13drop_in_place17h20059ffeb5edc3abE:
.Lfunc_begin9:
	.cfi_startproc
	.cfi_personality 155, DW.ref.rust_eh_personality
	.cfi_lsda 27, .Lexception9
	subq	$40, %rsp
	.cfi_def_cfa_offset 48
	movq	(%rdi), %rax
	movq	8(%rdi), %rcx
	movq	(%rcx), %rcx
.Ltmp51:
	movq	%rdi, 8(%rsp)
	movq	%rax, %rdi
	callq	*%rcx
.Ltmp52:
	jmp	.LBB68_3
.LBB68_1:
	addq	$40, %rsp
	.cfi_def_cfa_offset 8
	retq
.LBB68_2:
	.cfi_def_cfa_offset 48
	movq	24(%rsp), %rdi
	callq	_Unwind_Resume@PLT
	ud2
.LBB68_3:
	movq	8(%rsp), %rax
	movq	(%rax), %rdi
	movq	8(%rax), %rsi
	callq	_ZN5alloc5alloc8box_free17h82f09ed964c2eff5E
	jmp	.LBB68_1
.LBB68_4:
	movq	8(%rsp), %rax
	movq	(%rax), %rdi
	movq	8(%rax), %rsi
	callq	_ZN5alloc5alloc8box_free17h82f09ed964c2eff5E
	jmp	.LBB68_2
.LBB68_5:
.Ltmp53:
	movq	%rax, 24(%rsp)
	movl	%edx, 32(%rsp)
	jmp	.LBB68_4
.Lfunc_end68:
	.size	_ZN4core3ptr13drop_in_place17h20059ffeb5edc3abE, .Lfunc_end68-_ZN4core3ptr13drop_in_place17h20059ffeb5edc3abE
	.cfi_endproc
	.section	.gcc_except_table,"a",@progbits
	.p2align	2
GCC_except_table68:
.Lexception9:
	.byte	255
	.byte	255
	.byte	1
	.uleb128 .Lcst_end9-.Lcst_begin9
.Lcst_begin9:
	.uleb128 .Ltmp51-.Lfunc_begin9
	.uleb128 .Ltmp52-.Ltmp51
	.uleb128 .Ltmp53-.Lfunc_begin9
	.byte	0
	.uleb128 .Ltmp52-.Lfunc_begin9
	.uleb128 .Lfunc_end68-.Ltmp52
	.byte	0
	.byte	0
.Lcst_end9:
	.p2align	2

	.section	.text._ZN4core3ptr13drop_in_place17h28b9c45184da355cE,"ax",@progbits
	.p2align	4, 0x90
	.type	_ZN4core3ptr13drop_in_place17h28b9c45184da355cE,@function
_ZN4core3ptr13drop_in_place17h28b9c45184da355cE:
.Lfunc_begin10:
	.cfi_startproc
	.cfi_personality 155, DW.ref.rust_eh_personality
	.cfi_lsda 27, .Lexception10
	subq	$40, %rsp
	.cfi_def_cfa_offset 48
.Ltmp54:
	movq	%rdi, 8(%rsp)
	callq	_ZN66_$LT$alloc..vec..Vec$LT$T$GT$$u20$as$u20$core..ops..drop..Drop$GT$4drop17hb87d57f96ad343fcE
.Ltmp55:
	jmp	.LBB69_4
.LBB69_1:
	movq	24(%rsp), %rdi
	callq	_Unwind_Resume@PLT
	ud2
.LBB69_2:
	addq	$40, %rsp
	.cfi_def_cfa_offset 8
	retq
.LBB69_3:
	.cfi_def_cfa_offset 48
	movq	8(%rsp), %rax
	movq	%rax, %rdi
	callq	_ZN4core3ptr13drop_in_place17h17975d2ac7d6415aE
	jmp	.LBB69_1
.LBB69_4:
	movq	8(%rsp), %rax
	movq	%rax, %rdi
	callq	_ZN4core3ptr13drop_in_place17h17975d2ac7d6415aE
	jmp	.LBB69_2
.LBB69_5:
.Ltmp56:
	movq	%rax, 24(%rsp)
	movl	%edx, 32(%rsp)
	jmp	.LBB69_3
.Lfunc_end69:
	.size	_ZN4core3ptr13drop_in_place17h28b9c45184da355cE, .Lfunc_end69-_ZN4core3ptr13drop_in_place17h28b9c45184da355cE
	.cfi_endproc
	.section	.gcc_except_table,"a",@progbits
	.p2align	2
GCC_except_table69:
.Lexception10:
	.byte	255
	.byte	255
	.byte	1
	.uleb128 .Lcst_end10-.Lcst_begin10
.Lcst_begin10:
	.uleb128 .Ltmp54-.Lfunc_begin10
	.uleb128 .Ltmp55-.Ltmp54
	.uleb128 .Ltmp56-.Lfunc_begin10
	.byte	0
	.uleb128 .Ltmp55-.Lfunc_begin10
	.uleb128 .Lfunc_end69-.Ltmp55
	.byte	0
	.byte	0
.Lcst_end10:
	.p2align	2

	.section	.text._ZN4core3ptr13drop_in_place17h2ae6e967e4ae9484E,"ax",@progbits
	.p2align	4, 0x90
	.type	_ZN4core3ptr13drop_in_place17h2ae6e967e4ae9484E,@function
_ZN4core3ptr13drop_in_place17h2ae6e967e4ae9484E:
	.cfi_startproc
	pushq	%rax
	.cfi_def_cfa_offset 16
	popq	%rax
	.cfi_def_cfa_offset 8
	retq
.Lfunc_end70:
	.size	_ZN4core3ptr13drop_in_place17h2ae6e967e4ae9484E, .Lfunc_end70-_ZN4core3ptr13drop_in_place17h2ae6e967e4ae9484E
	.cfi_endproc

	.section	.text._ZN4core3ptr13drop_in_place17h3f26c895d6543732E,"ax",@progbits
	.p2align	4, 0x90
	.type	_ZN4core3ptr13drop_in_place17h3f26c895d6543732E,@function
_ZN4core3ptr13drop_in_place17h3f26c895d6543732E:
	.cfi_startproc
	pushq	%rax
	.cfi_def_cfa_offset 16
	callq	_ZN4core3ptr13drop_in_place17hda9642902dcaff7bE
	popq	%rax
	.cfi_def_cfa_offset 8
	retq
.Lfunc_end71:
	.size	_ZN4core3ptr13drop_in_place17h3f26c895d6543732E, .Lfunc_end71-_ZN4core3ptr13drop_in_place17h3f26c895d6543732E
	.cfi_endproc

	.section	.text._ZN4core3ptr13drop_in_place17h5affc9015971fd62E,"ax",@progbits
	.p2align	4, 0x90
	.type	_ZN4core3ptr13drop_in_place17h5affc9015971fd62E,@function
_ZN4core3ptr13drop_in_place17h5affc9015971fd62E:
	.cfi_startproc
	pushq	%rax
	.cfi_def_cfa_offset 16
	addq	$8, %rdi
	callq	_ZN4core3ptr13drop_in_place17hcfc80ff89b1aa54cE
	popq	%rax
	.cfi_def_cfa_offset 8
	retq
.Lfunc_end72:
	.size	_ZN4core3ptr13drop_in_place17h5affc9015971fd62E, .Lfunc_end72-_ZN4core3ptr13drop_in_place17h5affc9015971fd62E
	.cfi_endproc

	.section	.text._ZN4core3ptr13drop_in_place17h640fcf92a820f1d0E,"ax",@progbits
	.p2align	4, 0x90
	.type	_ZN4core3ptr13drop_in_place17h640fcf92a820f1d0E,@function
_ZN4core3ptr13drop_in_place17h640fcf92a820f1d0E:
	.cfi_startproc
	subq	$40, %rsp
	.cfi_def_cfa_offset 48
	movq	%rdi, 8(%rsp)
	jmp	.LBB73_2
.LBB73_1:
	addq	$40, %rsp
	.cfi_def_cfa_offset 8
	retq
.LBB73_2:
	.cfi_def_cfa_offset 48
	movq	8(%rsp), %rax
	movq	(%rax), %rdi
	movq	8(%rax), %rsi
	callq	_ZN5alloc5alloc8box_free17h1f7cffbb3f0f116aE
	jmp	.LBB73_1
.Lfunc_end73:
	.size	_ZN4core3ptr13drop_in_place17h640fcf92a820f1d0E, .Lfunc_end73-_ZN4core3ptr13drop_in_place17h640fcf92a820f1d0E
	.cfi_endproc

	.section	.text._ZN4core3ptr13drop_in_place17h642403355948571cE,"ax",@progbits
	.p2align	4, 0x90
	.type	_ZN4core3ptr13drop_in_place17h642403355948571cE,@function
_ZN4core3ptr13drop_in_place17h642403355948571cE:
	.cfi_startproc
	pushq	%rax
	.cfi_def_cfa_offset 16
	callq	_ZN77_$LT$alloc..raw_vec..RawVec$LT$T$C$A$GT$$u20$as$u20$core..ops..drop..Drop$GT$4drop17hc8c6d340c9ab5acdE
	popq	%rax
	.cfi_def_cfa_offset 8
	retq
.Lfunc_end74:
	.size	_ZN4core3ptr13drop_in_place17h642403355948571cE, .Lfunc_end74-_ZN4core3ptr13drop_in_place17h642403355948571cE
	.cfi_endproc

	.section	.text._ZN4core3ptr13drop_in_place17h886810281480089fE,"ax",@progbits
	.p2align	4, 0x90
	.type	_ZN4core3ptr13drop_in_place17h886810281480089fE,@function
_ZN4core3ptr13drop_in_place17h886810281480089fE:
	.cfi_startproc
	pushq	%rax
	.cfi_def_cfa_offset 16
	callq	*(%rsi)
	popq	%rax
	.cfi_def_cfa_offset 8
	retq
.Lfunc_end75:
	.size	_ZN4core3ptr13drop_in_place17h886810281480089fE, .Lfunc_end75-_ZN4core3ptr13drop_in_place17h886810281480089fE
	.cfi_endproc

	.section	.text._ZN4core3ptr13drop_in_place17h9eec23beab20490dE,"ax",@progbits
	.p2align	4, 0x90
	.type	_ZN4core3ptr13drop_in_place17h9eec23beab20490dE,@function
_ZN4core3ptr13drop_in_place17h9eec23beab20490dE:
	.cfi_startproc
	pushq	%rax
	.cfi_def_cfa_offset 16
	callq	_ZN4core3ptr13drop_in_place17h5affc9015971fd62E
	popq	%rax
	.cfi_def_cfa_offset 8
	retq
.Lfunc_end76:
	.size	_ZN4core3ptr13drop_in_place17h9eec23beab20490dE, .Lfunc_end76-_ZN4core3ptr13drop_in_place17h9eec23beab20490dE
	.cfi_endproc

	.section	.text._ZN4core3ptr13drop_in_place17h9f3b3c2443277606E,"ax",@progbits
	.p2align	4, 0x90
	.type	_ZN4core3ptr13drop_in_place17h9f3b3c2443277606E,@function
_ZN4core3ptr13drop_in_place17h9f3b3c2443277606E:
	.cfi_startproc
	pushq	%rax
	.cfi_def_cfa_offset 16
	popq	%rax
	.cfi_def_cfa_offset 8
	retq
.Lfunc_end77:
	.size	_ZN4core3ptr13drop_in_place17h9f3b3c2443277606E, .Lfunc_end77-_ZN4core3ptr13drop_in_place17h9f3b3c2443277606E
	.cfi_endproc

	.section	.text._ZN4core3ptr13drop_in_place17hb98e9e86eec64d09E,"ax",@progbits
	.p2align	4, 0x90
	.type	_ZN4core3ptr13drop_in_place17hb98e9e86eec64d09E,@function
_ZN4core3ptr13drop_in_place17hb98e9e86eec64d09E:
	.cfi_startproc
	pushq	%rax
	.cfi_def_cfa_offset 16
	popq	%rax
	.cfi_def_cfa_offset 8
	retq
.Lfunc_end78:
	.size	_ZN4core3ptr13drop_in_place17hb98e9e86eec64d09E, .Lfunc_end78-_ZN4core3ptr13drop_in_place17hb98e9e86eec64d09E
	.cfi_endproc

	.section	.text._ZN4core3ptr13drop_in_place17hbb27f82c0b2645c5E,"ax",@progbits
	.p2align	4, 0x90
	.type	_ZN4core3ptr13drop_in_place17hbb27f82c0b2645c5E,@function
_ZN4core3ptr13drop_in_place17hbb27f82c0b2645c5E:
	.cfi_startproc
	pushq	%rax
	.cfi_def_cfa_offset 16
	callq	_ZN4core3ptr13drop_in_place17h9eec23beab20490dE
	popq	%rax
	.cfi_def_cfa_offset 8
	retq
.Lfunc_end79:
	.size	_ZN4core3ptr13drop_in_place17hbb27f82c0b2645c5E, .Lfunc_end79-_ZN4core3ptr13drop_in_place17hbb27f82c0b2645c5E
	.cfi_endproc

	.section	.text._ZN4core3ptr13drop_in_place17hbec3d9538402cdedE,"ax",@progbits
	.p2align	4, 0x90
	.type	_ZN4core3ptr13drop_in_place17hbec3d9538402cdedE,@function
_ZN4core3ptr13drop_in_place17hbec3d9538402cdedE:
	.cfi_startproc
	pushq	%rax
	.cfi_def_cfa_offset 16
	popq	%rax
	.cfi_def_cfa_offset 8
	retq
.Lfunc_end80:
	.size	_ZN4core3ptr13drop_in_place17hbec3d9538402cdedE, .Lfunc_end80-_ZN4core3ptr13drop_in_place17hbec3d9538402cdedE
	.cfi_endproc

	.section	.text._ZN4core3ptr13drop_in_place17hcfc80ff89b1aa54cE,"ax",@progbits
	.p2align	4, 0x90
	.type	_ZN4core3ptr13drop_in_place17hcfc80ff89b1aa54cE,@function
_ZN4core3ptr13drop_in_place17hcfc80ff89b1aa54cE:
	.cfi_startproc
	pushq	%rax
	.cfi_def_cfa_offset 16
	callq	_ZN66_$LT$alloc..vec..SetLenOnDrop$u20$as$u20$core..ops..drop..Drop$GT$4drop17hc0e5771891be5573E
	popq	%rax
	.cfi_def_cfa_offset 8
	retq
.Lfunc_end81:
	.size	_ZN4core3ptr13drop_in_place17hcfc80ff89b1aa54cE, .Lfunc_end81-_ZN4core3ptr13drop_in_place17hcfc80ff89b1aa54cE
	.cfi_endproc

	.section	.text._ZN4core3ptr13drop_in_place17hd23c460a940852dbE,"ax",@progbits
	.p2align	4, 0x90
	.type	_ZN4core3ptr13drop_in_place17hd23c460a940852dbE,@function
_ZN4core3ptr13drop_in_place17hd23c460a940852dbE:
	.cfi_startproc
	pushq	%rax
	.cfi_def_cfa_offset 16
	callq	_ZN4core3ptr13drop_in_place17h28b9c45184da355cE
	popq	%rax
	.cfi_def_cfa_offset 8
	retq
.Lfunc_end82:
	.size	_ZN4core3ptr13drop_in_place17hd23c460a940852dbE, .Lfunc_end82-_ZN4core3ptr13drop_in_place17hd23c460a940852dbE
	.cfi_endproc

	.section	.text._ZN4core3ptr13drop_in_place17hda9642902dcaff7bE,"ax",@progbits
	.p2align	4, 0x90
	.type	_ZN4core3ptr13drop_in_place17hda9642902dcaff7bE,@function
_ZN4core3ptr13drop_in_place17hda9642902dcaff7bE:
.Lfunc_begin11:
	.cfi_startproc
	.cfi_personality 155, DW.ref.rust_eh_personality
	.cfi_lsda 27, .Lexception11
	subq	$40, %rsp
	.cfi_def_cfa_offset 48
.Ltmp57:
	movq	%rdi, 8(%rsp)
	callq	_ZN66_$LT$alloc..vec..Vec$LT$T$GT$$u20$as$u20$core..ops..drop..Drop$GT$4drop17hdbebef3c4fdbeacbE
.Ltmp58:
	jmp	.LBB83_4
.LBB83_1:
	movq	24(%rsp), %rdi
	callq	_Unwind_Resume@PLT
	ud2
.LBB83_2:
	addq	$40, %rsp
	.cfi_def_cfa_offset 8
	retq
.LBB83_3:
	.cfi_def_cfa_offset 48
	movq	8(%rsp), %rax
	movq	%rax, %rdi
	callq	_ZN4core3ptr13drop_in_place17h642403355948571cE
	jmp	.LBB83_1
.LBB83_4:
	movq	8(%rsp), %rax
	movq	%rax, %rdi
	callq	_ZN4core3ptr13drop_in_place17h642403355948571cE
	jmp	.LBB83_2
.LBB83_5:
.Ltmp59:
	movq	%rax, 24(%rsp)
	movl	%edx, 32(%rsp)
	jmp	.LBB83_3
.Lfunc_end83:
	.size	_ZN4core3ptr13drop_in_place17hda9642902dcaff7bE, .Lfunc_end83-_ZN4core3ptr13drop_in_place17hda9642902dcaff7bE
	.cfi_endproc
	.section	.gcc_except_table,"a",@progbits
	.p2align	2
GCC_except_table83:
.Lexception11:
	.byte	255
	.byte	255
	.byte	1
	.uleb128 .Lcst_end11-.Lcst_begin11
.Lcst_begin11:
	.uleb128 .Ltmp57-.Lfunc_begin11
	.uleb128 .Ltmp58-.Ltmp57
	.uleb128 .Ltmp59-.Lfunc_begin11
	.byte	0
	.uleb128 .Ltmp58-.Lfunc_begin11
	.uleb128 .Lfunc_end83-.Ltmp58
	.byte	0
	.byte	0
.Lcst_end11:
	.p2align	2

	.section	.text._ZN4core3ptr13drop_in_place17hf013eeea2b035c38E,"ax",@progbits
	.p2align	4, 0x90
	.type	_ZN4core3ptr13drop_in_place17hf013eeea2b035c38E,@function
_ZN4core3ptr13drop_in_place17hf013eeea2b035c38E:
	.cfi_startproc
	pushq	%rax
	.cfi_def_cfa_offset 16
	popq	%rax
	.cfi_def_cfa_offset 8
	retq
.Lfunc_end84:
	.size	_ZN4core3ptr13drop_in_place17hf013eeea2b035c38E, .Lfunc_end84-_ZN4core3ptr13drop_in_place17hf013eeea2b035c38E
	.cfi_endproc

	.section	.text._ZN4core3ptr19swap_nonoverlapping17h8df6b99a3e29b484E,"ax",@progbits
	.p2align	4, 0x90
	.type	_ZN4core3ptr19swap_nonoverlapping17h8df6b99a3e29b484E,@function
_ZN4core3ptr19swap_nonoverlapping17h8df6b99a3e29b484E:
	.cfi_startproc
	subq	$40, %rsp
	.cfi_def_cfa_offset 48
	movq	$8, 32(%rsp)
	movq	32(%rsp), %rax
	movq	%rdx, 24(%rsp)
	movq	%rdi, 16(%rsp)
	movq	%rsi, 8(%rsp)
	movq	%rax, (%rsp)
	movq	(%rsp), %rax
	movq	24(%rsp), %rcx
	imulq	%rcx, %rax
	movq	16(%rsp), %rdi
	movq	8(%rsp), %rsi
	movq	%rax, %rdx
	callq	_ZN4core3ptr25swap_nonoverlapping_bytes17h1f24035325315982E
	addq	$40, %rsp
	.cfi_def_cfa_offset 8
	retq
.Lfunc_end85:
	.size	_ZN4core3ptr19swap_nonoverlapping17h8df6b99a3e29b484E, .Lfunc_end85-_ZN4core3ptr19swap_nonoverlapping17h8df6b99a3e29b484E
	.cfi_endproc

	.section	.text._ZN4core3ptr19swap_nonoverlapping17hb757b8b8eb835467E,"ax",@progbits
	.p2align	4, 0x90
	.type	_ZN4core3ptr19swap_nonoverlapping17hb757b8b8eb835467E,@function
_ZN4core3ptr19swap_nonoverlapping17hb757b8b8eb835467E:
	.cfi_startproc
	subq	$40, %rsp
	.cfi_def_cfa_offset 48
	movq	$16, 32(%rsp)
	movq	32(%rsp), %rax
	movq	%rdx, 24(%rsp)
	movq	%rdi, 16(%rsp)
	movq	%rsi, 8(%rsp)
	movq	%rax, (%rsp)
	movq	(%rsp), %rax
	movq	24(%rsp), %rcx
	imulq	%rcx, %rax
	movq	16(%rsp), %rdi
	movq	8(%rsp), %rsi
	movq	%rax, %rdx
	callq	_ZN4core3ptr25swap_nonoverlapping_bytes17h1f24035325315982E
	addq	$40, %rsp
	.cfi_def_cfa_offset 8
	retq
.Lfunc_end86:
	.size	_ZN4core3ptr19swap_nonoverlapping17hb757b8b8eb835467E, .Lfunc_end86-_ZN4core3ptr19swap_nonoverlapping17hb757b8b8eb835467E
	.cfi_endproc

	.section	.text._ZN4core3ptr20slice_from_raw_parts17h76faa1effcd5638bE,"ax",@progbits
	.p2align	4, 0x90
	.type	_ZN4core3ptr20slice_from_raw_parts17h76faa1effcd5638bE,@function
_ZN4core3ptr20slice_from_raw_parts17h76faa1effcd5638bE:
	.cfi_startproc
	subq	$32, %rsp
	.cfi_def_cfa_offset 40
	movq	%rdi, 16(%rsp)
	movq	%rsi, 24(%rsp)
	movq	16(%rsp), %rax
	movq	24(%rsp), %rcx
	movq	%rax, (%rsp)
	movq	%rcx, 8(%rsp)
	movq	(%rsp), %rax
	movq	8(%rsp), %rdx
	addq	$32, %rsp
	.cfi_def_cfa_offset 8
	retq
.Lfunc_end87:
	.size	_ZN4core3ptr20slice_from_raw_parts17h76faa1effcd5638bE, .Lfunc_end87-_ZN4core3ptr20slice_from_raw_parts17h76faa1effcd5638bE
	.cfi_endproc

	.section	.text._ZN4core3ptr20slice_from_raw_parts17hde5ab7b97d141d2dE,"ax",@progbits
	.p2align	4, 0x90
	.type	_ZN4core3ptr20slice_from_raw_parts17hde5ab7b97d141d2dE,@function
_ZN4core3ptr20slice_from_raw_parts17hde5ab7b97d141d2dE:
	.cfi_startproc
	subq	$32, %rsp
	.cfi_def_cfa_offset 40
	movq	%rdi, 16(%rsp)
	movq	%rsi, 24(%rsp)
	movq	16(%rsp), %rax
	movq	24(%rsp), %rcx
	movq	%rax, (%rsp)
	movq	%rcx, 8(%rsp)
	movq	(%rsp), %rax
	movq	8(%rsp), %rdx
	addq	$32, %rsp
	.cfi_def_cfa_offset 8
	retq
.Lfunc_end88:
	.size	_ZN4core3ptr20slice_from_raw_parts17hde5ab7b97d141d2dE, .Lfunc_end88-_ZN4core3ptr20slice_from_raw_parts17hde5ab7b97d141d2dE
	.cfi_endproc

	.section	.text._ZN4core3ptr23swap_nonoverlapping_one17h8ec6b83bad434a6aE,"ax",@progbits
	.p2align	4, 0x90
	.type	_ZN4core3ptr23swap_nonoverlapping_one17h8ec6b83bad434a6aE,@function
_ZN4core3ptr23swap_nonoverlapping_one17h8ec6b83bad434a6aE:
.Lfunc_begin12:
	.cfi_startproc
	.cfi_personality 155, DW.ref.rust_eh_personality
	.cfi_lsda 27, .Lexception12
	subq	$72, %rsp
	.cfi_def_cfa_offset 80
	movb	$0, 47(%rsp)
	movq	$8, 64(%rsp)
	movq	64(%rsp), %rax
	movq	%rdi, 32(%rsp)
	movq	%rsi, 24(%rsp)
	movq	%rax, 16(%rsp)
	jmp	.LBB89_2
.LBB89_1:
	movq	48(%rsp), %rdi
	callq	_Unwind_Resume@PLT
	ud2
.LBB89_2:
	movq	16(%rsp), %rax
	cmpq	$32, %rax
	jb	.LBB89_4
	movq	32(%rsp), %rdi
	movq	24(%rsp), %rsi
	movl	$1, %edx
	callq	_ZN4core3ptr19swap_nonoverlapping17h8df6b99a3e29b484E
	jmp	.LBB89_8
.LBB89_4:
	movb	$1, 47(%rsp)
	movq	32(%rsp), %rdi
	callq	_ZN4core3ptr4read17hf4f21837c13d4d3cE
	movq	%rax, 8(%rsp)
.Ltmp60:
	movl	$1, %edx
	movq	24(%rsp), %rdi
	movq	32(%rsp), %rsi
	callq	_ZN4core10intrinsics19copy_nonoverlapping17h2b81904f254d32ddE
.Ltmp61:
	jmp	.LBB89_6
.LBB89_6:
	movb	$0, 47(%rsp)
.Ltmp62:
	movq	24(%rsp), %rdi
	movq	8(%rsp), %rsi
	callq	_ZN4core3ptr5write17h28bc1c112095a0d0E
.Ltmp63:
	jmp	.LBB89_7
.LBB89_7:
	movb	$0, 47(%rsp)
	jmp	.LBB89_9
.LBB89_8:
	jmp	.LBB89_9
.LBB89_9:
	addq	$72, %rsp
	.cfi_def_cfa_offset 8
	retq
.LBB89_10:
	.cfi_def_cfa_offset 80
	movb	$0, 47(%rsp)
	jmp	.LBB89_1
.LBB89_11:
	testb	$1, 47(%rsp)
	jne	.LBB89_10
	jmp	.LBB89_1
.LBB89_12:
.Ltmp64:
	movq	%rax, 48(%rsp)
	movl	%edx, 56(%rsp)
	jmp	.LBB89_11
.Lfunc_end89:
	.size	_ZN4core3ptr23swap_nonoverlapping_one17h8ec6b83bad434a6aE, .Lfunc_end89-_ZN4core3ptr23swap_nonoverlapping_one17h8ec6b83bad434a6aE
	.cfi_endproc
	.section	.gcc_except_table,"a",@progbits
	.p2align	2
GCC_except_table89:
.Lexception12:
	.byte	255
	.byte	255
	.byte	1
	.uleb128 .Lcst_end12-.Lcst_begin12
.Lcst_begin12:
	.uleb128 .Lfunc_begin12-.Lfunc_begin12
	.uleb128 .Ltmp60-.Lfunc_begin12
	.byte	0
	.byte	0
	.uleb128 .Ltmp60-.Lfunc_begin12
	.uleb128 .Ltmp63-.Ltmp60
	.uleb128 .Ltmp64-.Lfunc_begin12
	.byte	0
.Lcst_end12:
	.p2align	2

	.section	.text._ZN4core3ptr23swap_nonoverlapping_one17hab756867da515918E,"ax",@progbits
	.p2align	4, 0x90
	.type	_ZN4core3ptr23swap_nonoverlapping_one17hab756867da515918E,@function
_ZN4core3ptr23swap_nonoverlapping_one17hab756867da515918E:
.Lfunc_begin13:
	.cfi_startproc
	.cfi_personality 155, DW.ref.rust_eh_personality
	.cfi_lsda 27, .Lexception13
	subq	$72, %rsp
	.cfi_def_cfa_offset 80
	movb	$0, 47(%rsp)
	movq	$16, 64(%rsp)
	movq	64(%rsp), %rax
	movq	%rdi, 32(%rsp)
	movq	%rsi, 24(%rsp)
	movq	%rax, 16(%rsp)
	jmp	.LBB90_2
.LBB90_1:
	movq	48(%rsp), %rdi
	callq	_Unwind_Resume@PLT
	ud2
.LBB90_2:
	movq	16(%rsp), %rax
	cmpq	$32, %rax
	jb	.LBB90_4
	movq	32(%rsp), %rdi
	movq	24(%rsp), %rsi
	movl	$1, %edx
	callq	_ZN4core3ptr19swap_nonoverlapping17hb757b8b8eb835467E
	jmp	.LBB90_8
.LBB90_4:
	movb	$1, 47(%rsp)
	movq	32(%rsp), %rdi
	callq	_ZN4core3ptr4read17h3d4a7aad43d7e542E
	movq	%rax, 8(%rsp)
	movq	%rdx, (%rsp)
.Ltmp65:
	movl	$1, %edx
	movq	24(%rsp), %rdi
	movq	32(%rsp), %rsi
	callq	_ZN4core10intrinsics19copy_nonoverlapping17h794751cdc82e290aE
.Ltmp66:
	jmp	.LBB90_6
.LBB90_6:
	movb	$0, 47(%rsp)
.Ltmp67:
	movq	24(%rsp), %rdi
	movq	8(%rsp), %rsi
	movq	(%rsp), %rdx
	callq	_ZN4core3ptr5write17h3895d18268c342b0E
.Ltmp68:
	jmp	.LBB90_7
.LBB90_7:
	movb	$0, 47(%rsp)
	jmp	.LBB90_9
.LBB90_8:
	jmp	.LBB90_9
.LBB90_9:
	addq	$72, %rsp
	.cfi_def_cfa_offset 8
	retq
.LBB90_10:
	.cfi_def_cfa_offset 80
	movb	$0, 47(%rsp)
	jmp	.LBB90_1
.LBB90_11:
	testb	$1, 47(%rsp)
	jne	.LBB90_10
	jmp	.LBB90_1
.LBB90_12:
.Ltmp69:
	movq	%rax, 48(%rsp)
	movl	%edx, 56(%rsp)
	jmp	.LBB90_11
.Lfunc_end90:
	.size	_ZN4core3ptr23swap_nonoverlapping_one17hab756867da515918E, .Lfunc_end90-_ZN4core3ptr23swap_nonoverlapping_one17hab756867da515918E
	.cfi_endproc
	.section	.gcc_except_table,"a",@progbits
	.p2align	2
GCC_except_table90:
.Lexception13:
	.byte	255
	.byte	255
	.byte	1
	.uleb128 .Lcst_end13-.Lcst_begin13
.Lcst_begin13:
	.uleb128 .Lfunc_begin13-.Lfunc_begin13
	.uleb128 .Ltmp65-.Lfunc_begin13
	.byte	0
	.byte	0
	.uleb128 .Ltmp65-.Lfunc_begin13
	.uleb128 .Ltmp68-.Ltmp65
	.uleb128 .Ltmp69-.Lfunc_begin13
	.byte	0
.Lcst_end13:
	.p2align	2

	.section	.text._ZN4core3ptr24slice_from_raw_parts_mut17h435553a579a83164E,"ax",@progbits
	.p2align	4, 0x90
	.type	_ZN4core3ptr24slice_from_raw_parts_mut17h435553a579a83164E,@function
_ZN4core3ptr24slice_from_raw_parts_mut17h435553a579a83164E:
	.cfi_startproc
	subq	$32, %rsp
	.cfi_def_cfa_offset 40
	movq	%rdi, 16(%rsp)
	movq	%rsi, 24(%rsp)
	movq	16(%rsp), %rax
	movq	24(%rsp), %rcx
	movq	%rax, (%rsp)
	movq	%rcx, 8(%rsp)
	movq	(%rsp), %rax
	movq	8(%rsp), %rdx
	addq	$32, %rsp
	.cfi_def_cfa_offset 8
	retq
.Lfunc_end91:
	.size	_ZN4core3ptr24slice_from_raw_parts_mut17h435553a579a83164E, .Lfunc_end91-_ZN4core3ptr24slice_from_raw_parts_mut17h435553a579a83164E
	.cfi_endproc

	.section	.text._ZN4core3ptr24slice_from_raw_parts_mut17h71a9e2221cb30e9fE,"ax",@progbits
	.p2align	4, 0x90
	.type	_ZN4core3ptr24slice_from_raw_parts_mut17h71a9e2221cb30e9fE,@function
_ZN4core3ptr24slice_from_raw_parts_mut17h71a9e2221cb30e9fE:
	.cfi_startproc
	subq	$32, %rsp
	.cfi_def_cfa_offset 40
	movq	%rdi, 16(%rsp)
	movq	%rsi, 24(%rsp)
	movq	16(%rsp), %rax
	movq	24(%rsp), %rcx
	movq	%rax, (%rsp)
	movq	%rcx, 8(%rsp)
	movq	(%rsp), %rax
	movq	8(%rsp), %rdx
	addq	$32, %rsp
	.cfi_def_cfa_offset 8
	retq
.Lfunc_end92:
	.size	_ZN4core3ptr24slice_from_raw_parts_mut17h71a9e2221cb30e9fE, .Lfunc_end92-_ZN4core3ptr24slice_from_raw_parts_mut17h71a9e2221cb30e9fE
	.cfi_endproc

	.section	.text._ZN4core3ptr25swap_nonoverlapping_bytes17h1f24035325315982E,"ax",@progbits
	.p2align	4, 0x90
	.type	_ZN4core3ptr25swap_nonoverlapping_bytes17h1f24035325315982E,@function
_ZN4core3ptr25swap_nonoverlapping_bytes17h1f24035325315982E:
	.cfi_startproc
	pushq	%rbp
	.cfi_def_cfa_offset 16
	.cfi_offset %rbp, -16
	movq	%rsp, %rbp
	.cfi_def_cfa_register %rbp
	andq	$-32, %rsp
	subq	$224, %rsp
	movq	$32, 200(%rsp)
	movq	200(%rsp), %rax
	movq	%rdi, 104(%rsp)
	movq	%rsi, 96(%rsp)
	movq	%rdx, 88(%rsp)
	movq	%rax, 80(%rsp)
	movq	$0, 120(%rsp)
.LBB93_2:
	movq	80(%rsp), %rax
	addq	120(%rsp), %rax
	movq	88(%rsp), %rcx
	cmpq	%rcx, %rax
	jbe	.LBB93_4
	movq	88(%rsp), %rax
	cmpq	%rax, 120(%rsp)
	jb	.LBB93_13
	jmp	.LBB93_12
.LBB93_4:
	jmp	.LBB93_6
.LBB93_6:
	leaq	128(%rsp), %rax
	movq	120(%rsp), %rsi
	movq	104(%rsp), %rdi
	movq	%rax, 72(%rsp)
	callq	_ZN4core3ptr7mut_ptr31_$LT$impl$u20$$BP$mut$u20$T$GT$3add17h609c07695c86fdb1E
	movq	%rax, 64(%rsp)
	movq	120(%rsp), %rsi
	movq	96(%rsp), %rdi
	callq	_ZN4core3ptr7mut_ptr31_$LT$impl$u20$$BP$mut$u20$T$GT$3add17h609c07695c86fdb1E
	movq	%rax, 56(%rsp)
	movq	64(%rsp), %rdi
	movq	72(%rsp), %rsi
	movq	80(%rsp), %rdx
	callq	_ZN4core10intrinsics19copy_nonoverlapping17h47c577baea7bd148E
	movq	56(%rsp), %rdi
	movq	64(%rsp), %rsi
	movq	80(%rsp), %rdx
	callq	_ZN4core10intrinsics19copy_nonoverlapping17h47c577baea7bd148E
	movq	72(%rsp), %rdi
	movq	56(%rsp), %rsi
	movq	80(%rsp), %rdx
	callq	_ZN4core10intrinsics19copy_nonoverlapping17h47c577baea7bd148E
	movq	80(%rsp), %rax
	addq	120(%rsp), %rax
	movq	%rax, 120(%rsp)
	jmp	.LBB93_2
.LBB93_12:
	jmp	.LBB93_21
.LBB93_13:
	movq	88(%rsp), %rax
	subq	120(%rsp), %rax
	leaq	168(%rsp), %rcx
	movq	%rax, 48(%rsp)
	movq	%rcx, 40(%rsp)
	movq	40(%rsp), %rax
	movq	120(%rsp), %rsi
	movq	104(%rsp), %rdi
	movq	%rax, 32(%rsp)
	callq	_ZN4core3ptr7mut_ptr31_$LT$impl$u20$$BP$mut$u20$T$GT$3add17h609c07695c86fdb1E
	movq	%rax, 24(%rsp)
	movq	120(%rsp), %rsi
	movq	96(%rsp), %rdi
	callq	_ZN4core3ptr7mut_ptr31_$LT$impl$u20$$BP$mut$u20$T$GT$3add17h609c07695c86fdb1E
	movq	%rax, 16(%rsp)
	movq	24(%rsp), %rdi
	movq	32(%rsp), %rsi
	movq	48(%rsp), %rdx
	callq	_ZN4core10intrinsics19copy_nonoverlapping17h47c577baea7bd148E
	movq	16(%rsp), %rdi
	movq	24(%rsp), %rsi
	movq	48(%rsp), %rdx
	callq	_ZN4core10intrinsics19copy_nonoverlapping17h47c577baea7bd148E
	movq	32(%rsp), %rdi
	movq	16(%rsp), %rsi
	movq	48(%rsp), %rdx
	callq	_ZN4core10intrinsics19copy_nonoverlapping17h47c577baea7bd148E
	jmp	.LBB93_21
.LBB93_21:
	movq	%rbp, %rsp
	popq	%rbp
	.cfi_def_cfa %rsp, 8
	retq
.Lfunc_end93:
	.size	_ZN4core3ptr25swap_nonoverlapping_bytes17h1f24035325315982E, .Lfunc_end93-_ZN4core3ptr25swap_nonoverlapping_bytes17h1f24035325315982E
	.cfi_endproc

	.section	.text._ZN4core3ptr4read17h3d4a7aad43d7e542E,"ax",@progbits
	.p2align	4, 0x90
	.type	_ZN4core3ptr4read17h3d4a7aad43d7e542E,@function
_ZN4core3ptr4read17h3d4a7aad43d7e542E:
	.cfi_startproc
	subq	$56, %rsp
	.cfi_def_cfa_offset 64
	movq	40(%rsp), %rax
	movq	48(%rsp), %rcx
	movq	%rcx, 32(%rsp)
	movq	%rax, 24(%rsp)
	movq	%rdi, 16(%rsp)
	jmp	.LBB94_2
.LBB94_2:
	movq	16(%rsp), %rdi
	leaq	24(%rsp), %rsi
	movl	$1, %edx
	callq	_ZN4core10intrinsics19copy_nonoverlapping17h794751cdc82e290aE
	movq	24(%rsp), %rax
	movq	32(%rsp), %rdx
	movq	%rax, 8(%rsp)
	movq	%rdx, (%rsp)
	movq	8(%rsp), %rax
	movq	(%rsp), %rdx
	addq	$56, %rsp
	.cfi_def_cfa_offset 8
	retq
.Lfunc_end94:
	.size	_ZN4core3ptr4read17h3d4a7aad43d7e542E, .Lfunc_end94-_ZN4core3ptr4read17h3d4a7aad43d7e542E
	.cfi_endproc

	.section	.text._ZN4core3ptr4read17hf4f21837c13d4d3cE,"ax",@progbits
	.p2align	4, 0x90
	.type	_ZN4core3ptr4read17hf4f21837c13d4d3cE,@function
_ZN4core3ptr4read17hf4f21837c13d4d3cE:
	.cfi_startproc
	subq	$40, %rsp
	.cfi_def_cfa_offset 48
	movq	32(%rsp), %rax
	movq	%rax, 24(%rsp)
	movq	%rdi, 16(%rsp)
	jmp	.LBB95_2
.LBB95_2:
	movq	16(%rsp), %rdi
	leaq	24(%rsp), %rsi
	movl	$1, %edx
	callq	_ZN4core10intrinsics19copy_nonoverlapping17h2b81904f254d32ddE
	movq	24(%rsp), %rax
	movq	%rax, 8(%rsp)
	movq	8(%rsp), %rax
	addq	$40, %rsp
	.cfi_def_cfa_offset 8
	retq
.Lfunc_end95:
	.size	_ZN4core3ptr4read17hf4f21837c13d4d3cE, .Lfunc_end95-_ZN4core3ptr4read17hf4f21837c13d4d3cE
	.cfi_endproc

	.section	.text._ZN4core3ptr5write17h28bc1c112095a0d0E,"ax",@progbits
	.p2align	4, 0x90
	.type	_ZN4core3ptr5write17h28bc1c112095a0d0E,@function
_ZN4core3ptr5write17h28bc1c112095a0d0E:
	.cfi_startproc
	pushq	%rax
	.cfi_def_cfa_offset 16
	movq	%rsi, (%rdi)
	popq	%rax
	.cfi_def_cfa_offset 8
	retq
.Lfunc_end96:
	.size	_ZN4core3ptr5write17h28bc1c112095a0d0E, .Lfunc_end96-_ZN4core3ptr5write17h28bc1c112095a0d0E
	.cfi_endproc

	.section	.text._ZN4core3ptr5write17h3895d18268c342b0E,"ax",@progbits
	.p2align	4, 0x90
	.type	_ZN4core3ptr5write17h3895d18268c342b0E,@function
_ZN4core3ptr5write17h3895d18268c342b0E:
	.cfi_startproc
	pushq	%rax
	.cfi_def_cfa_offset 16
	movq	%rsi, (%rdi)
	movq	%rdx, 8(%rdi)
	popq	%rax
	.cfi_def_cfa_offset 8
	retq
.Lfunc_end97:
	.size	_ZN4core3ptr5write17h3895d18268c342b0E, .Lfunc_end97-_ZN4core3ptr5write17h3895d18268c342b0E
	.cfi_endproc

	.section	.text._ZN4core3ptr5write17h60ee9ef2b529c500E,"ax",@progbits
	.p2align	4, 0x90
	.type	_ZN4core3ptr5write17h60ee9ef2b529c500E,@function
_ZN4core3ptr5write17h60ee9ef2b529c500E:
	.cfi_startproc
	pushq	%rax
	.cfi_def_cfa_offset 16
	movl	%esi, (%rdi)
	popq	%rax
	.cfi_def_cfa_offset 8
	retq
.Lfunc_end98:
	.size	_ZN4core3ptr5write17h60ee9ef2b529c500E, .Lfunc_end98-_ZN4core3ptr5write17h60ee9ef2b529c500E
	.cfi_endproc

	.section	".text._ZN4core3ptr6unique15Unique$LT$T$GT$13new_unchecked17h8931866be44a145bE","ax",@progbits
	.p2align	4, 0x90
	.type	_ZN4core3ptr6unique15Unique$LT$T$GT$13new_unchecked17h8931866be44a145bE,@function
_ZN4core3ptr6unique15Unique$LT$T$GT$13new_unchecked17h8931866be44a145bE:
	.cfi_startproc
	subq	$16, %rsp
	.cfi_def_cfa_offset 24
	movq	%rdi, (%rsp)
	movq	(%rsp), %rax
	addq	$16, %rsp
	.cfi_def_cfa_offset 8
	retq
.Lfunc_end99:
	.size	_ZN4core3ptr6unique15Unique$LT$T$GT$13new_unchecked17h8931866be44a145bE, .Lfunc_end99-_ZN4core3ptr6unique15Unique$LT$T$GT$13new_unchecked17h8931866be44a145bE
	.cfi_endproc

	.section	".text._ZN4core3ptr6unique15Unique$LT$T$GT$13new_unchecked17h8eb935448e9d1820E","ax",@progbits
	.p2align	4, 0x90
	.type	_ZN4core3ptr6unique15Unique$LT$T$GT$13new_unchecked17h8eb935448e9d1820E,@function
_ZN4core3ptr6unique15Unique$LT$T$GT$13new_unchecked17h8eb935448e9d1820E:
	.cfi_startproc
	subq	$16, %rsp
	.cfi_def_cfa_offset 24
	movq	%rdi, (%rsp)
	movq	(%rsp), %rax
	addq	$16, %rsp
	.cfi_def_cfa_offset 8
	retq
.Lfunc_end100:
	.size	_ZN4core3ptr6unique15Unique$LT$T$GT$13new_unchecked17h8eb935448e9d1820E, .Lfunc_end100-_ZN4core3ptr6unique15Unique$LT$T$GT$13new_unchecked17h8eb935448e9d1820E
	.cfi_endproc

	.section	".text._ZN4core3ptr6unique15Unique$LT$T$GT$4cast17h3eb7da45cb211800E","ax",@progbits
	.p2align	4, 0x90
	.type	_ZN4core3ptr6unique15Unique$LT$T$GT$4cast17h3eb7da45cb211800E,@function
_ZN4core3ptr6unique15Unique$LT$T$GT$4cast17h3eb7da45cb211800E:
	.cfi_startproc
	subq	$24, %rsp
	.cfi_def_cfa_offset 32
	callq	_ZN4core3ptr6unique15Unique$LT$T$GT$6as_ptr17h5dd80c0f235e42d9E
	movq	%rax, 16(%rsp)
	movq	16(%rsp), %rdi
	callq	_ZN4core3ptr6unique15Unique$LT$T$GT$13new_unchecked17h8931866be44a145bE
	movq	%rax, 8(%rsp)
	movq	8(%rsp), %rax
	addq	$24, %rsp
	.cfi_def_cfa_offset 8
	retq
.Lfunc_end101:
	.size	_ZN4core3ptr6unique15Unique$LT$T$GT$4cast17h3eb7da45cb211800E, .Lfunc_end101-_ZN4core3ptr6unique15Unique$LT$T$GT$4cast17h3eb7da45cb211800E
	.cfi_endproc

	.section	".text._ZN4core3ptr6unique15Unique$LT$T$GT$4cast17h4fb7193827ffc4baE","ax",@progbits
	.p2align	4, 0x90
	.type	_ZN4core3ptr6unique15Unique$LT$T$GT$4cast17h4fb7193827ffc4baE,@function
_ZN4core3ptr6unique15Unique$LT$T$GT$4cast17h4fb7193827ffc4baE:
	.cfi_startproc
	subq	$24, %rsp
	.cfi_def_cfa_offset 32
	callq	_ZN4core3ptr6unique15Unique$LT$T$GT$6as_ptr17h4d24d2f801baa204E
	movq	%rax, 16(%rsp)
	movq	16(%rsp), %rax
	movq	%rax, %rdi
	callq	_ZN4core3ptr6unique15Unique$LT$T$GT$13new_unchecked17h8931866be44a145bE
	movq	%rax, 8(%rsp)
	movq	8(%rsp), %rax
	addq	$24, %rsp
	.cfi_def_cfa_offset 8
	retq
.Lfunc_end102:
	.size	_ZN4core3ptr6unique15Unique$LT$T$GT$4cast17h4fb7193827ffc4baE, .Lfunc_end102-_ZN4core3ptr6unique15Unique$LT$T$GT$4cast17h4fb7193827ffc4baE
	.cfi_endproc

	.section	".text._ZN4core3ptr6unique15Unique$LT$T$GT$4cast17h81e348065edc8b45E","ax",@progbits
	.p2align	4, 0x90
	.type	_ZN4core3ptr6unique15Unique$LT$T$GT$4cast17h81e348065edc8b45E,@function
_ZN4core3ptr6unique15Unique$LT$T$GT$4cast17h81e348065edc8b45E:
	.cfi_startproc
	subq	$24, %rsp
	.cfi_def_cfa_offset 32
	callq	_ZN4core3ptr6unique15Unique$LT$T$GT$6as_ptr17hce12c5bad5a6420dE
	movq	%rax, 16(%rsp)
	movq	16(%rsp), %rax
	movq	%rax, %rdi
	callq	_ZN4core3ptr6unique15Unique$LT$T$GT$13new_unchecked17h8931866be44a145bE
	movq	%rax, 8(%rsp)
	movq	8(%rsp), %rax
	addq	$24, %rsp
	.cfi_def_cfa_offset 8
	retq
.Lfunc_end103:
	.size	_ZN4core3ptr6unique15Unique$LT$T$GT$4cast17h81e348065edc8b45E, .Lfunc_end103-_ZN4core3ptr6unique15Unique$LT$T$GT$4cast17h81e348065edc8b45E
	.cfi_endproc

	.section	".text._ZN4core3ptr6unique15Unique$LT$T$GT$4cast17hb2ed74df0a2036a0E","ax",@progbits
	.p2align	4, 0x90
	.type	_ZN4core3ptr6unique15Unique$LT$T$GT$4cast17hb2ed74df0a2036a0E,@function
_ZN4core3ptr6unique15Unique$LT$T$GT$4cast17hb2ed74df0a2036a0E:
	.cfi_startproc
	subq	$24, %rsp
	.cfi_def_cfa_offset 32
	callq	_ZN4core3ptr6unique15Unique$LT$T$GT$6as_ptr17hdcaf622f9e33018aE
	movq	%rax, 16(%rsp)
	movq	16(%rsp), %rax
	movq	%rax, %rdi
	callq	_ZN4core3ptr6unique15Unique$LT$T$GT$13new_unchecked17h8931866be44a145bE
	movq	%rax, 8(%rsp)
	movq	8(%rsp), %rax
	addq	$24, %rsp
	.cfi_def_cfa_offset 8
	retq
.Lfunc_end104:
	.size	_ZN4core3ptr6unique15Unique$LT$T$GT$4cast17hb2ed74df0a2036a0E, .Lfunc_end104-_ZN4core3ptr6unique15Unique$LT$T$GT$4cast17hb2ed74df0a2036a0E
	.cfi_endproc

	.section	".text._ZN4core3ptr6unique15Unique$LT$T$GT$6as_ptr17h4d24d2f801baa204E","ax",@progbits
	.p2align	4, 0x90
	.type	_ZN4core3ptr6unique15Unique$LT$T$GT$6as_ptr17h4d24d2f801baa204E,@function
_ZN4core3ptr6unique15Unique$LT$T$GT$6as_ptr17h4d24d2f801baa204E:
	.cfi_startproc
	movq	%rdi, %rax
	movq	%rsi, %rdx
	retq
.Lfunc_end105:
	.size	_ZN4core3ptr6unique15Unique$LT$T$GT$6as_ptr17h4d24d2f801baa204E, .Lfunc_end105-_ZN4core3ptr6unique15Unique$LT$T$GT$6as_ptr17h4d24d2f801baa204E
	.cfi_endproc

	.section	".text._ZN4core3ptr6unique15Unique$LT$T$GT$6as_ptr17h5dd80c0f235e42d9E","ax",@progbits
	.p2align	4, 0x90
	.type	_ZN4core3ptr6unique15Unique$LT$T$GT$6as_ptr17h5dd80c0f235e42d9E,@function
_ZN4core3ptr6unique15Unique$LT$T$GT$6as_ptr17h5dd80c0f235e42d9E:
	.cfi_startproc
	movq	%rdi, %rax
	retq
.Lfunc_end106:
	.size	_ZN4core3ptr6unique15Unique$LT$T$GT$6as_ptr17h5dd80c0f235e42d9E, .Lfunc_end106-_ZN4core3ptr6unique15Unique$LT$T$GT$6as_ptr17h5dd80c0f235e42d9E
	.cfi_endproc

	.section	".text._ZN4core3ptr6unique15Unique$LT$T$GT$6as_ptr17hce12c5bad5a6420dE","ax",@progbits
	.p2align	4, 0x90
	.type	_ZN4core3ptr6unique15Unique$LT$T$GT$6as_ptr17hce12c5bad5a6420dE,@function
_ZN4core3ptr6unique15Unique$LT$T$GT$6as_ptr17hce12c5bad5a6420dE:
	.cfi_startproc
	movq	%rdi, %rax
	retq
.Lfunc_end107:
	.size	_ZN4core3ptr6unique15Unique$LT$T$GT$6as_ptr17hce12c5bad5a6420dE, .Lfunc_end107-_ZN4core3ptr6unique15Unique$LT$T$GT$6as_ptr17hce12c5bad5a6420dE
	.cfi_endproc

	.section	".text._ZN4core3ptr6unique15Unique$LT$T$GT$6as_ptr17hdcaf622f9e33018aE","ax",@progbits
	.p2align	4, 0x90
	.type	_ZN4core3ptr6unique15Unique$LT$T$GT$6as_ptr17hdcaf622f9e33018aE,@function
_ZN4core3ptr6unique15Unique$LT$T$GT$6as_ptr17hdcaf622f9e33018aE:
	.cfi_startproc
	movq	%rdi, %rax
	movq	%rsi, %rdx
	retq
.Lfunc_end108:
	.size	_ZN4core3ptr6unique15Unique$LT$T$GT$6as_ptr17hdcaf622f9e33018aE, .Lfunc_end108-_ZN4core3ptr6unique15Unique$LT$T$GT$6as_ptr17hdcaf622f9e33018aE
	.cfi_endproc

	.section	".text._ZN4core3ptr6unique15Unique$LT$T$GT$6as_ref17h1448449c338d22b4E","ax",@progbits
	.p2align	4, 0x90
	.type	_ZN4core3ptr6unique15Unique$LT$T$GT$6as_ref17h1448449c338d22b4E,@function
_ZN4core3ptr6unique15Unique$LT$T$GT$6as_ref17h1448449c338d22b4E:
	.cfi_startproc
	subq	$24, %rsp
	.cfi_def_cfa_offset 32
	movq	(%rdi), %rax
	movq	8(%rdi), %rsi
	movq	%rax, %rdi
	callq	_ZN4core3ptr6unique15Unique$LT$T$GT$6as_ptr17h4d24d2f801baa204E
	movq	%rax, 16(%rsp)
	movq	%rdx, 8(%rsp)
	movq	16(%rsp), %rax
	movq	8(%rsp), %rdx
	addq	$24, %rsp
	.cfi_def_cfa_offset 8
	retq
.Lfunc_end109:
	.size	_ZN4core3ptr6unique15Unique$LT$T$GT$6as_ref17h1448449c338d22b4E, .Lfunc_end109-_ZN4core3ptr6unique15Unique$LT$T$GT$6as_ref17h1448449c338d22b4E
	.cfi_endproc

	.section	".text._ZN4core3ptr6unique15Unique$LT$T$GT$6as_ref17h591279a720b7eaabE","ax",@progbits
	.p2align	4, 0x90
	.type	_ZN4core3ptr6unique15Unique$LT$T$GT$6as_ref17h591279a720b7eaabE,@function
_ZN4core3ptr6unique15Unique$LT$T$GT$6as_ref17h591279a720b7eaabE:
	.cfi_startproc
	subq	$24, %rsp
	.cfi_def_cfa_offset 32
	movq	(%rdi), %rax
	movq	8(%rdi), %rsi
	movq	%rax, %rdi
	callq	_ZN4core3ptr6unique15Unique$LT$T$GT$6as_ptr17hdcaf622f9e33018aE
	movq	%rax, 16(%rsp)
	movq	%rdx, 8(%rsp)
	movq	16(%rsp), %rax
	movq	8(%rsp), %rdx
	addq	$24, %rsp
	.cfi_def_cfa_offset 8
	retq
.Lfunc_end110:
	.size	_ZN4core3ptr6unique15Unique$LT$T$GT$6as_ref17h591279a720b7eaabE, .Lfunc_end110-_ZN4core3ptr6unique15Unique$LT$T$GT$6as_ref17h591279a720b7eaabE
	.cfi_endproc

	.section	".text._ZN4core3ptr6unique15Unique$LT$T$GT$8dangling17h9ba7e7e73082872bE","ax",@progbits
	.p2align	4, 0x90
	.type	_ZN4core3ptr6unique15Unique$LT$T$GT$8dangling17h9ba7e7e73082872bE,@function
_ZN4core3ptr6unique15Unique$LT$T$GT$8dangling17h9ba7e7e73082872bE:
	.cfi_startproc
	subq	$24, %rsp
	.cfi_def_cfa_offset 32
	movq	$1, 16(%rsp)
	movq	16(%rsp), %rdi
	movq	%rdi, 8(%rsp)
	movq	8(%rsp), %rdi
	callq	_ZN4core3ptr6unique15Unique$LT$T$GT$13new_unchecked17h8931866be44a145bE
	movq	%rax, (%rsp)
	movq	(%rsp), %rax
	addq	$24, %rsp
	.cfi_def_cfa_offset 8
	retq
.Lfunc_end111:
	.size	_ZN4core3ptr6unique15Unique$LT$T$GT$8dangling17h9ba7e7e73082872bE, .Lfunc_end111-_ZN4core3ptr6unique15Unique$LT$T$GT$8dangling17h9ba7e7e73082872bE
	.cfi_endproc

	.section	".text._ZN4core3ptr7mut_ptr31_$LT$impl$u20$$BP$mut$u20$T$GT$11write_bytes17h265cfeb7cde99e89E","ax",@progbits
	.p2align	4, 0x90
	.type	_ZN4core3ptr7mut_ptr31_$LT$impl$u20$$BP$mut$u20$T$GT$11write_bytes17h265cfeb7cde99e89E,@function
_ZN4core3ptr7mut_ptr31_$LT$impl$u20$$BP$mut$u20$T$GT$11write_bytes17h265cfeb7cde99e89E:
	.cfi_startproc
	pushq	%rax
	.cfi_def_cfa_offset 16
	movzbl	%sil, %esi
	callq	_ZN4core10intrinsics11write_bytes17hd31ccfb3da2cb590E
	popq	%rax
	.cfi_def_cfa_offset 8
	retq
.Lfunc_end112:
	.size	_ZN4core3ptr7mut_ptr31_$LT$impl$u20$$BP$mut$u20$T$GT$11write_bytes17h265cfeb7cde99e89E, .Lfunc_end112-_ZN4core3ptr7mut_ptr31_$LT$impl$u20$$BP$mut$u20$T$GT$11write_bytes17h265cfeb7cde99e89E
	.cfi_endproc

	.section	".text._ZN4core3ptr7mut_ptr31_$LT$impl$u20$$BP$mut$u20$T$GT$3add17h0d134851b410e705E","ax",@progbits
	.p2align	4, 0x90
	.type	_ZN4core3ptr7mut_ptr31_$LT$impl$u20$$BP$mut$u20$T$GT$3add17h0d134851b410e705E,@function
_ZN4core3ptr7mut_ptr31_$LT$impl$u20$$BP$mut$u20$T$GT$3add17h0d134851b410e705E:
	.cfi_startproc
	pushq	%rax
	.cfi_def_cfa_offset 16
	callq	_ZN4core3ptr7mut_ptr31_$LT$impl$u20$$BP$mut$u20$T$GT$6offset17hc6fe08907301ca8eE
	movq	%rax, (%rsp)
	movq	(%rsp), %rax
	popq	%rcx
	.cfi_def_cfa_offset 8
	retq
.Lfunc_end113:
	.size	_ZN4core3ptr7mut_ptr31_$LT$impl$u20$$BP$mut$u20$T$GT$3add17h0d134851b410e705E, .Lfunc_end113-_ZN4core3ptr7mut_ptr31_$LT$impl$u20$$BP$mut$u20$T$GT$3add17h0d134851b410e705E
	.cfi_endproc

	.section	".text._ZN4core3ptr7mut_ptr31_$LT$impl$u20$$BP$mut$u20$T$GT$3add17h609c07695c86fdb1E","ax",@progbits
	.p2align	4, 0x90
	.type	_ZN4core3ptr7mut_ptr31_$LT$impl$u20$$BP$mut$u20$T$GT$3add17h609c07695c86fdb1E,@function
_ZN4core3ptr7mut_ptr31_$LT$impl$u20$$BP$mut$u20$T$GT$3add17h609c07695c86fdb1E:
	.cfi_startproc
	pushq	%rax
	.cfi_def_cfa_offset 16
	callq	_ZN4core3ptr7mut_ptr31_$LT$impl$u20$$BP$mut$u20$T$GT$6offset17hd7316c597e67a76cE
	movq	%rax, (%rsp)
	movq	(%rsp), %rax
	popq	%rcx
	.cfi_def_cfa_offset 8
	retq
.Lfunc_end114:
	.size	_ZN4core3ptr7mut_ptr31_$LT$impl$u20$$BP$mut$u20$T$GT$3add17h609c07695c86fdb1E, .Lfunc_end114-_ZN4core3ptr7mut_ptr31_$LT$impl$u20$$BP$mut$u20$T$GT$3add17h609c07695c86fdb1E
	.cfi_endproc

	.section	".text._ZN4core3ptr7mut_ptr31_$LT$impl$u20$$BP$mut$u20$T$GT$3add17hc08e6edb17826a10E","ax",@progbits
	.p2align	4, 0x90
	.type	_ZN4core3ptr7mut_ptr31_$LT$impl$u20$$BP$mut$u20$T$GT$3add17hc08e6edb17826a10E,@function
_ZN4core3ptr7mut_ptr31_$LT$impl$u20$$BP$mut$u20$T$GT$3add17hc08e6edb17826a10E:
	.cfi_startproc
	pushq	%rax
	.cfi_def_cfa_offset 16
	callq	_ZN4core3ptr7mut_ptr31_$LT$impl$u20$$BP$mut$u20$T$GT$6offset17h2445df6ce961b128E
	movq	%rax, (%rsp)
	movq	(%rsp), %rax
	popq	%rcx
	.cfi_def_cfa_offset 8
	retq
.Lfunc_end115:
	.size	_ZN4core3ptr7mut_ptr31_$LT$impl$u20$$BP$mut$u20$T$GT$3add17hc08e6edb17826a10E, .Lfunc_end115-_ZN4core3ptr7mut_ptr31_$LT$impl$u20$$BP$mut$u20$T$GT$3add17hc08e6edb17826a10E
	.cfi_endproc

	.section	".text._ZN4core3ptr7mut_ptr31_$LT$impl$u20$$BP$mut$u20$T$GT$6offset17h2445df6ce961b128E","ax",@progbits
	.p2align	4, 0x90
	.type	_ZN4core3ptr7mut_ptr31_$LT$impl$u20$$BP$mut$u20$T$GT$6offset17h2445df6ce961b128E,@function
_ZN4core3ptr7mut_ptr31_$LT$impl$u20$$BP$mut$u20$T$GT$6offset17h2445df6ce961b128E:
	.cfi_startproc
	subq	$16, %rsp
	.cfi_def_cfa_offset 24
	shlq	$3, %rsi
	addq	%rsi, %rdi
	movq	%rdi, 8(%rsp)
	movq	8(%rsp), %rax
	movq	%rax, (%rsp)
	movq	(%rsp), %rax
	addq	$16, %rsp
	.cfi_def_cfa_offset 8
	retq
.Lfunc_end116:
	.size	_ZN4core3ptr7mut_ptr31_$LT$impl$u20$$BP$mut$u20$T$GT$6offset17h2445df6ce961b128E, .Lfunc_end116-_ZN4core3ptr7mut_ptr31_$LT$impl$u20$$BP$mut$u20$T$GT$6offset17h2445df6ce961b128E
	.cfi_endproc

	.section	".text._ZN4core3ptr7mut_ptr31_$LT$impl$u20$$BP$mut$u20$T$GT$6offset17hc6fe08907301ca8eE","ax",@progbits
	.p2align	4, 0x90
	.type	_ZN4core3ptr7mut_ptr31_$LT$impl$u20$$BP$mut$u20$T$GT$6offset17hc6fe08907301ca8eE,@function
_ZN4core3ptr7mut_ptr31_$LT$impl$u20$$BP$mut$u20$T$GT$6offset17hc6fe08907301ca8eE:
	.cfi_startproc
	subq	$16, %rsp
	.cfi_def_cfa_offset 24
	shlq	$2, %rsi
	addq	%rsi, %rdi
	movq	%rdi, 8(%rsp)
	movq	8(%rsp), %rax
	movq	%rax, (%rsp)
	movq	(%rsp), %rax
	addq	$16, %rsp
	.cfi_def_cfa_offset 8
	retq
.Lfunc_end117:
	.size	_ZN4core3ptr7mut_ptr31_$LT$impl$u20$$BP$mut$u20$T$GT$6offset17hc6fe08907301ca8eE, .Lfunc_end117-_ZN4core3ptr7mut_ptr31_$LT$impl$u20$$BP$mut$u20$T$GT$6offset17hc6fe08907301ca8eE
	.cfi_endproc

	.section	".text._ZN4core3ptr7mut_ptr31_$LT$impl$u20$$BP$mut$u20$T$GT$6offset17hd7316c597e67a76cE","ax",@progbits
	.p2align	4, 0x90
	.type	_ZN4core3ptr7mut_ptr31_$LT$impl$u20$$BP$mut$u20$T$GT$6offset17hd7316c597e67a76cE,@function
_ZN4core3ptr7mut_ptr31_$LT$impl$u20$$BP$mut$u20$T$GT$6offset17hd7316c597e67a76cE:
	.cfi_startproc
	subq	$16, %rsp
	.cfi_def_cfa_offset 24
	addq	%rsi, %rdi
	movq	%rdi, 8(%rsp)
	movq	8(%rsp), %rax
	movq	%rax, (%rsp)
	movq	(%rsp), %rax
	addq	$16, %rsp
	.cfi_def_cfa_offset 8
	retq
.Lfunc_end118:
	.size	_ZN4core3ptr7mut_ptr31_$LT$impl$u20$$BP$mut$u20$T$GT$6offset17hd7316c597e67a76cE, .Lfunc_end118-_ZN4core3ptr7mut_ptr31_$LT$impl$u20$$BP$mut$u20$T$GT$6offset17hd7316c597e67a76cE
	.cfi_endproc

	.section	".text._ZN4core3ptr7mut_ptr31_$LT$impl$u20$$BP$mut$u20$T$GT$7is_null17hd1746a54b60151f4E","ax",@progbits
	.p2align	4, 0x90
	.type	_ZN4core3ptr7mut_ptr31_$LT$impl$u20$$BP$mut$u20$T$GT$7is_null17hd1746a54b60151f4E,@function
_ZN4core3ptr7mut_ptr31_$LT$impl$u20$$BP$mut$u20$T$GT$7is_null17hd1746a54b60151f4E:
	.cfi_startproc
	pushq	%rax
	.cfi_def_cfa_offset 16
	movq	%rdi, (%rsp)
	jmp	.LBB119_1
.LBB119_1:
	movq	(%rsp), %rax
	cmpq	$0, %rax
	sete	%cl
	andb	$1, %cl
	movzbl	%cl, %edx
	movl	%edx, %eax
	popq	%rcx
	.cfi_def_cfa_offset 8
	retq
.Lfunc_end119:
	.size	_ZN4core3ptr7mut_ptr31_$LT$impl$u20$$BP$mut$u20$T$GT$7is_null17hd1746a54b60151f4E, .Lfunc_end119-_ZN4core3ptr7mut_ptr31_$LT$impl$u20$$BP$mut$u20$T$GT$7is_null17hd1746a54b60151f4E
	.cfi_endproc

	.section	".text._ZN4core3ptr7mut_ptr31_$LT$impl$u20$$BP$mut$u20$T$GT$7is_null17hdb695c7ee1a67105E","ax",@progbits
	.p2align	4, 0x90
	.type	_ZN4core3ptr7mut_ptr31_$LT$impl$u20$$BP$mut$u20$T$GT$7is_null17hdb695c7ee1a67105E,@function
_ZN4core3ptr7mut_ptr31_$LT$impl$u20$$BP$mut$u20$T$GT$7is_null17hdb695c7ee1a67105E:
	.cfi_startproc
	pushq	%rax
	.cfi_def_cfa_offset 16
	movq	%rdi, (%rsp)
	movq	(%rsp), %rax
	cmpq	$0, %rax
	sete	%cl
	andb	$1, %cl
	movzbl	%cl, %edx
	movl	%edx, %eax
	popq	%rcx
	.cfi_def_cfa_offset 8
	retq
.Lfunc_end120:
	.size	_ZN4core3ptr7mut_ptr31_$LT$impl$u20$$BP$mut$u20$T$GT$7is_null17hdb695c7ee1a67105E, .Lfunc_end120-_ZN4core3ptr7mut_ptr31_$LT$impl$u20$$BP$mut$u20$T$GT$7is_null17hdb695c7ee1a67105E
	.cfi_endproc

	.section	".text._ZN4core3ptr8non_null16NonNull$LT$T$GT$13new_unchecked17h0f7925db946c7083E","ax",@progbits
	.p2align	4, 0x90
	.type	_ZN4core3ptr8non_null16NonNull$LT$T$GT$13new_unchecked17h0f7925db946c7083E,@function
_ZN4core3ptr8non_null16NonNull$LT$T$GT$13new_unchecked17h0f7925db946c7083E:
	.cfi_startproc
	pushq	%rax
	.cfi_def_cfa_offset 16
	movq	%rdi, (%rsp)
	movq	(%rsp), %rax
	popq	%rcx
	.cfi_def_cfa_offset 8
	retq
.Lfunc_end121:
	.size	_ZN4core3ptr8non_null16NonNull$LT$T$GT$13new_unchecked17h0f7925db946c7083E, .Lfunc_end121-_ZN4core3ptr8non_null16NonNull$LT$T$GT$13new_unchecked17h0f7925db946c7083E
	.cfi_endproc

	.section	".text._ZN4core3ptr8non_null16NonNull$LT$T$GT$13new_unchecked17h6d29cf6a4c6340c5E","ax",@progbits
	.p2align	4, 0x90
	.type	_ZN4core3ptr8non_null16NonNull$LT$T$GT$13new_unchecked17h6d29cf6a4c6340c5E,@function
_ZN4core3ptr8non_null16NonNull$LT$T$GT$13new_unchecked17h6d29cf6a4c6340c5E:
	.cfi_startproc
	pushq	%rax
	.cfi_def_cfa_offset 16
	movq	%rdi, (%rsp)
	movq	(%rsp), %rax
	popq	%rcx
	.cfi_def_cfa_offset 8
	retq
.Lfunc_end122:
	.size	_ZN4core3ptr8non_null16NonNull$LT$T$GT$13new_unchecked17h6d29cf6a4c6340c5E, .Lfunc_end122-_ZN4core3ptr8non_null16NonNull$LT$T$GT$13new_unchecked17h6d29cf6a4c6340c5E
	.cfi_endproc

	.section	".text._ZN4core3ptr8non_null16NonNull$LT$T$GT$13new_unchecked17h79b7e622e39a0b60E","ax",@progbits
	.p2align	4, 0x90
	.type	_ZN4core3ptr8non_null16NonNull$LT$T$GT$13new_unchecked17h79b7e622e39a0b60E,@function
_ZN4core3ptr8non_null16NonNull$LT$T$GT$13new_unchecked17h79b7e622e39a0b60E:
	.cfi_startproc
	pushq	%rax
	.cfi_def_cfa_offset 16
	movq	%rdi, (%rsp)
	movq	(%rsp), %rax
	popq	%rcx
	.cfi_def_cfa_offset 8
	retq
.Lfunc_end123:
	.size	_ZN4core3ptr8non_null16NonNull$LT$T$GT$13new_unchecked17h79b7e622e39a0b60E, .Lfunc_end123-_ZN4core3ptr8non_null16NonNull$LT$T$GT$13new_unchecked17h79b7e622e39a0b60E
	.cfi_endproc

	.section	".text._ZN4core3ptr8non_null16NonNull$LT$T$GT$3new17h5d21f3741e55eff1E","ax",@progbits
	.p2align	4, 0x90
	.type	_ZN4core3ptr8non_null16NonNull$LT$T$GT$3new17h5d21f3741e55eff1E,@function
_ZN4core3ptr8non_null16NonNull$LT$T$GT$3new17h5d21f3741e55eff1E:
	.cfi_startproc
	subq	$40, %rsp
	.cfi_def_cfa_offset 48
	movq	%rdi, 24(%rsp)
	callq	_ZN4core3ptr7mut_ptr31_$LT$impl$u20$$BP$mut$u20$T$GT$7is_null17hd1746a54b60151f4E
	movb	%al, 23(%rsp)
	movb	23(%rsp), %al
	xorb	$-1, %al
	testb	$1, %al
	jne	.LBB124_3
	movq	$0, 32(%rsp)
	jmp	.LBB124_5
.LBB124_3:
	movq	24(%rsp), %rdi
	callq	_ZN4core3ptr8non_null16NonNull$LT$T$GT$13new_unchecked17h6d29cf6a4c6340c5E
	movq	%rax, 8(%rsp)
	movq	8(%rsp), %rax
	movq	%rax, 32(%rsp)
.LBB124_5:
	movq	32(%rsp), %rax
	addq	$40, %rsp
	.cfi_def_cfa_offset 8
	retq
.Lfunc_end124:
	.size	_ZN4core3ptr8non_null16NonNull$LT$T$GT$3new17h5d21f3741e55eff1E, .Lfunc_end124-_ZN4core3ptr8non_null16NonNull$LT$T$GT$3new17h5d21f3741e55eff1E
	.cfi_endproc

	.section	".text._ZN4core3ptr8non_null16NonNull$LT$T$GT$4cast17h384e1c577509ecf7E","ax",@progbits
	.p2align	4, 0x90
	.type	_ZN4core3ptr8non_null16NonNull$LT$T$GT$4cast17h384e1c577509ecf7E,@function
_ZN4core3ptr8non_null16NonNull$LT$T$GT$4cast17h384e1c577509ecf7E:
	.cfi_startproc
	subq	$24, %rsp
	.cfi_def_cfa_offset 32
	callq	_ZN4core3ptr8non_null16NonNull$LT$T$GT$6as_ptr17h1c63eb2bdb3c1857E
	movq	%rax, 16(%rsp)
	movq	16(%rsp), %rax
	movq	%rax, %rdi
	callq	_ZN4core3ptr8non_null16NonNull$LT$T$GT$13new_unchecked17h0f7925db946c7083E
	movq	%rax, 8(%rsp)
	movq	8(%rsp), %rax
	addq	$24, %rsp
	.cfi_def_cfa_offset 8
	retq
.Lfunc_end125:
	.size	_ZN4core3ptr8non_null16NonNull$LT$T$GT$4cast17h384e1c577509ecf7E, .Lfunc_end125-_ZN4core3ptr8non_null16NonNull$LT$T$GT$4cast17h384e1c577509ecf7E
	.cfi_endproc

	.section	".text._ZN4core3ptr8non_null16NonNull$LT$T$GT$4cast17h843e2098dd98131eE","ax",@progbits
	.p2align	4, 0x90
	.type	_ZN4core3ptr8non_null16NonNull$LT$T$GT$4cast17h843e2098dd98131eE,@function
_ZN4core3ptr8non_null16NonNull$LT$T$GT$4cast17h843e2098dd98131eE:
	.cfi_startproc
	subq	$24, %rsp
	.cfi_def_cfa_offset 32
	callq	_ZN4core3ptr8non_null16NonNull$LT$T$GT$6as_ptr17h1c63eb2bdb3c1857E
	movq	%rax, 16(%rsp)
	movq	16(%rsp), %rdi
	callq	_ZN4core3ptr8non_null16NonNull$LT$T$GT$13new_unchecked17h6d29cf6a4c6340c5E
	movq	%rax, 8(%rsp)
	movq	8(%rsp), %rax
	addq	$24, %rsp
	.cfi_def_cfa_offset 8
	retq
.Lfunc_end126:
	.size	_ZN4core3ptr8non_null16NonNull$LT$T$GT$4cast17h843e2098dd98131eE, .Lfunc_end126-_ZN4core3ptr8non_null16NonNull$LT$T$GT$4cast17h843e2098dd98131eE
	.cfi_endproc

	.section	".text._ZN4core3ptr8non_null16NonNull$LT$T$GT$6as_ptr17h04b93739be61039dE","ax",@progbits
	.p2align	4, 0x90
	.type	_ZN4core3ptr8non_null16NonNull$LT$T$GT$6as_ptr17h04b93739be61039dE,@function
_ZN4core3ptr8non_null16NonNull$LT$T$GT$6as_ptr17h04b93739be61039dE:
	.cfi_startproc
	movq	%rdi, %rax
	retq
.Lfunc_end127:
	.size	_ZN4core3ptr8non_null16NonNull$LT$T$GT$6as_ptr17h04b93739be61039dE, .Lfunc_end127-_ZN4core3ptr8non_null16NonNull$LT$T$GT$6as_ptr17h04b93739be61039dE
	.cfi_endproc

	.section	".text._ZN4core3ptr8non_null16NonNull$LT$T$GT$6as_ptr17h1c63eb2bdb3c1857E","ax",@progbits
	.p2align	4, 0x90
	.type	_ZN4core3ptr8non_null16NonNull$LT$T$GT$6as_ptr17h1c63eb2bdb3c1857E,@function
_ZN4core3ptr8non_null16NonNull$LT$T$GT$6as_ptr17h1c63eb2bdb3c1857E:
	.cfi_startproc
	movq	%rdi, %rax
	retq
.Lfunc_end128:
	.size	_ZN4core3ptr8non_null16NonNull$LT$T$GT$6as_ptr17h1c63eb2bdb3c1857E, .Lfunc_end128-_ZN4core3ptr8non_null16NonNull$LT$T$GT$6as_ptr17h1c63eb2bdb3c1857E
	.cfi_endproc

	.section	".text._ZN4core3ptr8non_null16NonNull$LT$T$GT$6as_ptr17hb728d00a2d826924E","ax",@progbits
	.p2align	4, 0x90
	.type	_ZN4core3ptr8non_null16NonNull$LT$T$GT$6as_ptr17hb728d00a2d826924E,@function
_ZN4core3ptr8non_null16NonNull$LT$T$GT$6as_ptr17hb728d00a2d826924E:
	.cfi_startproc
	movq	%rdi, %rax
	retq
.Lfunc_end129:
	.size	_ZN4core3ptr8non_null16NonNull$LT$T$GT$6as_ptr17hb728d00a2d826924E, .Lfunc_end129-_ZN4core3ptr8non_null16NonNull$LT$T$GT$6as_ptr17hb728d00a2d826924E
	.cfi_endproc

	.section	".text._ZN4core3ptr9const_ptr33_$LT$impl$u20$$BP$const$u20$T$GT$12wrapping_add17he739d85282b2af82E","ax",@progbits
	.p2align	4, 0x90
	.type	_ZN4core3ptr9const_ptr33_$LT$impl$u20$$BP$const$u20$T$GT$12wrapping_add17he739d85282b2af82E,@function
_ZN4core3ptr9const_ptr33_$LT$impl$u20$$BP$const$u20$T$GT$12wrapping_add17he739d85282b2af82E:
	.cfi_startproc
	pushq	%rax
	.cfi_def_cfa_offset 16
	callq	_ZN4core3ptr9const_ptr33_$LT$impl$u20$$BP$const$u20$T$GT$15wrapping_offset17h3b15950f26adb12fE
	movq	%rax, (%rsp)
	movq	(%rsp), %rax
	popq	%rcx
	.cfi_def_cfa_offset 8
	retq
.Lfunc_end130:
	.size	_ZN4core3ptr9const_ptr33_$LT$impl$u20$$BP$const$u20$T$GT$12wrapping_add17he739d85282b2af82E, .Lfunc_end130-_ZN4core3ptr9const_ptr33_$LT$impl$u20$$BP$const$u20$T$GT$12wrapping_add17he739d85282b2af82E
	.cfi_endproc

	.section	".text._ZN4core3ptr9const_ptr33_$LT$impl$u20$$BP$const$u20$T$GT$15wrapping_offset17h3b15950f26adb12fE","ax",@progbits
	.p2align	4, 0x90
	.type	_ZN4core3ptr9const_ptr33_$LT$impl$u20$$BP$const$u20$T$GT$15wrapping_offset17h3b15950f26adb12fE,@function
_ZN4core3ptr9const_ptr33_$LT$impl$u20$$BP$const$u20$T$GT$15wrapping_offset17h3b15950f26adb12fE:
	.cfi_startproc
	subq	$16, %rsp
	.cfi_def_cfa_offset 24
	addq	%rsi, %rdi
	movq	%rdi, 8(%rsp)
	movq	8(%rsp), %rax
	movq	%rax, (%rsp)
	movq	(%rsp), %rax
	addq	$16, %rsp
	.cfi_def_cfa_offset 8
	retq
.Lfunc_end131:
	.size	_ZN4core3ptr9const_ptr33_$LT$impl$u20$$BP$const$u20$T$GT$15wrapping_offset17h3b15950f26adb12fE, .Lfunc_end131-_ZN4core3ptr9const_ptr33_$LT$impl$u20$$BP$const$u20$T$GT$15wrapping_offset17h3b15950f26adb12fE
	.cfi_endproc

	.section	".text._ZN4core3ptr9const_ptr33_$LT$impl$u20$$BP$const$u20$T$GT$3add17h24b092a2dffb7870E","ax",@progbits
	.p2align	4, 0x90
	.type	_ZN4core3ptr9const_ptr33_$LT$impl$u20$$BP$const$u20$T$GT$3add17h24b092a2dffb7870E,@function
_ZN4core3ptr9const_ptr33_$LT$impl$u20$$BP$const$u20$T$GT$3add17h24b092a2dffb7870E:
	.cfi_startproc
	pushq	%rax
	.cfi_def_cfa_offset 16
	callq	_ZN4core3ptr9const_ptr33_$LT$impl$u20$$BP$const$u20$T$GT$6offset17h50cc126f6b1f622dE
	movq	%rax, (%rsp)
	movq	(%rsp), %rax
	popq	%rcx
	.cfi_def_cfa_offset 8
	retq
.Lfunc_end132:
	.size	_ZN4core3ptr9const_ptr33_$LT$impl$u20$$BP$const$u20$T$GT$3add17h24b092a2dffb7870E, .Lfunc_end132-_ZN4core3ptr9const_ptr33_$LT$impl$u20$$BP$const$u20$T$GT$3add17h24b092a2dffb7870E
	.cfi_endproc

	.section	".text._ZN4core3ptr9const_ptr33_$LT$impl$u20$$BP$const$u20$T$GT$3add17h707747effa592b1aE","ax",@progbits
	.p2align	4, 0x90
	.type	_ZN4core3ptr9const_ptr33_$LT$impl$u20$$BP$const$u20$T$GT$3add17h707747effa592b1aE,@function
_ZN4core3ptr9const_ptr33_$LT$impl$u20$$BP$const$u20$T$GT$3add17h707747effa592b1aE:
	.cfi_startproc
	pushq	%rax
	.cfi_def_cfa_offset 16
	callq	_ZN4core3ptr9const_ptr33_$LT$impl$u20$$BP$const$u20$T$GT$6offset17h715be572a28d1328E
	movq	%rax, (%rsp)
	movq	(%rsp), %rax
	popq	%rcx
	.cfi_def_cfa_offset 8
	retq
.Lfunc_end133:
	.size	_ZN4core3ptr9const_ptr33_$LT$impl$u20$$BP$const$u20$T$GT$3add17h707747effa592b1aE, .Lfunc_end133-_ZN4core3ptr9const_ptr33_$LT$impl$u20$$BP$const$u20$T$GT$3add17h707747effa592b1aE
	.cfi_endproc

	.section	".text._ZN4core3ptr9const_ptr33_$LT$impl$u20$$BP$const$u20$T$GT$3add17hce6a18fef093fa07E","ax",@progbits
	.p2align	4, 0x90
	.type	_ZN4core3ptr9const_ptr33_$LT$impl$u20$$BP$const$u20$T$GT$3add17hce6a18fef093fa07E,@function
_ZN4core3ptr9const_ptr33_$LT$impl$u20$$BP$const$u20$T$GT$3add17hce6a18fef093fa07E:
	.cfi_startproc
	pushq	%rax
	.cfi_def_cfa_offset 16
	callq	_ZN4core3ptr9const_ptr33_$LT$impl$u20$$BP$const$u20$T$GT$6offset17h1b2df6bb9787db68E
	movq	%rax, (%rsp)
	movq	(%rsp), %rax
	popq	%rcx
	.cfi_def_cfa_offset 8
	retq
.Lfunc_end134:
	.size	_ZN4core3ptr9const_ptr33_$LT$impl$u20$$BP$const$u20$T$GT$3add17hce6a18fef093fa07E, .Lfunc_end134-_ZN4core3ptr9const_ptr33_$LT$impl$u20$$BP$const$u20$T$GT$3add17hce6a18fef093fa07E
	.cfi_endproc

	.section	".text._ZN4core3ptr9const_ptr33_$LT$impl$u20$$BP$const$u20$T$GT$6offset17h1b2df6bb9787db68E","ax",@progbits
	.p2align	4, 0x90
	.type	_ZN4core3ptr9const_ptr33_$LT$impl$u20$$BP$const$u20$T$GT$6offset17h1b2df6bb9787db68E,@function
_ZN4core3ptr9const_ptr33_$LT$impl$u20$$BP$const$u20$T$GT$6offset17h1b2df6bb9787db68E:
	.cfi_startproc
	subq	$16, %rsp
	.cfi_def_cfa_offset 24
	shlq	$3, %rsi
	addq	%rsi, %rdi
	movq	%rdi, 8(%rsp)
	movq	8(%rsp), %rax
	movq	%rax, (%rsp)
	movq	(%rsp), %rax
	addq	$16, %rsp
	.cfi_def_cfa_offset 8
	retq
.Lfunc_end135:
	.size	_ZN4core3ptr9const_ptr33_$LT$impl$u20$$BP$const$u20$T$GT$6offset17h1b2df6bb9787db68E, .Lfunc_end135-_ZN4core3ptr9const_ptr33_$LT$impl$u20$$BP$const$u20$T$GT$6offset17h1b2df6bb9787db68E
	.cfi_endproc

	.section	".text._ZN4core3ptr9const_ptr33_$LT$impl$u20$$BP$const$u20$T$GT$6offset17h50cc126f6b1f622dE","ax",@progbits
	.p2align	4, 0x90
	.type	_ZN4core3ptr9const_ptr33_$LT$impl$u20$$BP$const$u20$T$GT$6offset17h50cc126f6b1f622dE,@function
_ZN4core3ptr9const_ptr33_$LT$impl$u20$$BP$const$u20$T$GT$6offset17h50cc126f6b1f622dE:
	.cfi_startproc
	subq	$16, %rsp
	.cfi_def_cfa_offset 24
	addq	%rsi, %rdi
	movq	%rdi, 8(%rsp)
	movq	8(%rsp), %rax
	movq	%rax, (%rsp)
	movq	(%rsp), %rax
	addq	$16, %rsp
	.cfi_def_cfa_offset 8
	retq
.Lfunc_end136:
	.size	_ZN4core3ptr9const_ptr33_$LT$impl$u20$$BP$const$u20$T$GT$6offset17h50cc126f6b1f622dE, .Lfunc_end136-_ZN4core3ptr9const_ptr33_$LT$impl$u20$$BP$const$u20$T$GT$6offset17h50cc126f6b1f622dE
	.cfi_endproc

	.section	".text._ZN4core3ptr9const_ptr33_$LT$impl$u20$$BP$const$u20$T$GT$6offset17h715be572a28d1328E","ax",@progbits
	.p2align	4, 0x90
	.type	_ZN4core3ptr9const_ptr33_$LT$impl$u20$$BP$const$u20$T$GT$6offset17h715be572a28d1328E,@function
_ZN4core3ptr9const_ptr33_$LT$impl$u20$$BP$const$u20$T$GT$6offset17h715be572a28d1328E:
	.cfi_startproc
	subq	$16, %rsp
	.cfi_def_cfa_offset 24
	shlq	$2, %rsi
	addq	%rsi, %rdi
	movq	%rdi, 8(%rsp)
	movq	8(%rsp), %rax
	movq	%rax, (%rsp)
	movq	(%rsp), %rax
	addq	$16, %rsp
	.cfi_def_cfa_offset 8
	retq
.Lfunc_end137:
	.size	_ZN4core3ptr9const_ptr33_$LT$impl$u20$$BP$const$u20$T$GT$6offset17h715be572a28d1328E, .Lfunc_end137-_ZN4core3ptr9const_ptr33_$LT$impl$u20$$BP$const$u20$T$GT$6offset17h715be572a28d1328E
	.cfi_endproc

	.section	".text._ZN4core3ptr9const_ptr33_$LT$impl$u20$$BP$const$u20$T$GT$7is_null17h139265ba00b23098E","ax",@progbits
	.p2align	4, 0x90
	.type	_ZN4core3ptr9const_ptr33_$LT$impl$u20$$BP$const$u20$T$GT$7is_null17h139265ba00b23098E,@function
_ZN4core3ptr9const_ptr33_$LT$impl$u20$$BP$const$u20$T$GT$7is_null17h139265ba00b23098E:
	.cfi_startproc
	pushq	%rax
	.cfi_def_cfa_offset 16
	movq	%rdi, (%rsp)
	movq	(%rsp), %rax
	cmpq	$0, %rax
	sete	%cl
	andb	$1, %cl
	movzbl	%cl, %edx
	movl	%edx, %eax
	popq	%rcx
	.cfi_def_cfa_offset 8
	retq
.Lfunc_end138:
	.size	_ZN4core3ptr9const_ptr33_$LT$impl$u20$$BP$const$u20$T$GT$7is_null17h139265ba00b23098E, .Lfunc_end138-_ZN4core3ptr9const_ptr33_$LT$impl$u20$$BP$const$u20$T$GT$7is_null17h139265ba00b23098E
	.cfi_endproc

	.section	".text._ZN4core3ptr9const_ptr33_$LT$impl$u20$$BP$const$u20$T$GT$7is_null17h368afa4eb11a3718E","ax",@progbits
	.p2align	4, 0x90
	.type	_ZN4core3ptr9const_ptr33_$LT$impl$u20$$BP$const$u20$T$GT$7is_null17h368afa4eb11a3718E,@function
_ZN4core3ptr9const_ptr33_$LT$impl$u20$$BP$const$u20$T$GT$7is_null17h368afa4eb11a3718E:
	.cfi_startproc
	pushq	%rax
	.cfi_def_cfa_offset 16
	movq	%rdi, (%rsp)
	movq	(%rsp), %rax
	cmpq	$0, %rax
	sete	%cl
	andb	$1, %cl
	movzbl	%cl, %edx
	movl	%edx, %eax
	popq	%rcx
	.cfi_def_cfa_offset 8
	retq
.Lfunc_end139:
	.size	_ZN4core3ptr9const_ptr33_$LT$impl$u20$$BP$const$u20$T$GT$7is_null17h368afa4eb11a3718E, .Lfunc_end139-_ZN4core3ptr9const_ptr33_$LT$impl$u20$$BP$const$u20$T$GT$7is_null17h368afa4eb11a3718E
	.cfi_endproc

	.section	".text._ZN4core3ptr9const_ptr33_$LT$impl$u20$$BP$const$u20$T$GT$7is_null17h97e47aa489cd3c47E","ax",@progbits
	.p2align	4, 0x90
	.type	_ZN4core3ptr9const_ptr33_$LT$impl$u20$$BP$const$u20$T$GT$7is_null17h97e47aa489cd3c47E,@function
_ZN4core3ptr9const_ptr33_$LT$impl$u20$$BP$const$u20$T$GT$7is_null17h97e47aa489cd3c47E:
	.cfi_startproc
	pushq	%rax
	.cfi_def_cfa_offset 16
	movq	%rdi, (%rsp)
	jmp	.LBB140_1
.LBB140_1:
	movq	(%rsp), %rax
	cmpq	$0, %rax
	sete	%cl
	andb	$1, %cl
	movzbl	%cl, %edx
	movl	%edx, %eax
	popq	%rcx
	.cfi_def_cfa_offset 8
	retq
.Lfunc_end140:
	.size	_ZN4core3ptr9const_ptr33_$LT$impl$u20$$BP$const$u20$T$GT$7is_null17h97e47aa489cd3c47E, .Lfunc_end140-_ZN4core3ptr9const_ptr33_$LT$impl$u20$$BP$const$u20$T$GT$7is_null17h97e47aa489cd3c47E
	.cfi_endproc

	.section	".text._ZN4core4iter5range101_$LT$impl$u20$core..iter..traits..iterator..Iterator$u20$for$u20$core..ops..range..Range$LT$A$GT$$GT$4next17he1035c1a886b5198E","ax",@progbits
	.p2align	4, 0x90
	.type	_ZN4core4iter5range101_$LT$impl$u20$core..iter..traits..iterator..Iterator$u20$for$u20$core..ops..range..Range$LT$A$GT$$GT$4next17he1035c1a886b5198E,@function
_ZN4core4iter5range101_$LT$impl$u20$core..iter..traits..iterator..Iterator$u20$for$u20$core..ops..range..Range$LT$A$GT$$GT$4next17he1035c1a886b5198E:
	.cfi_startproc
	subq	$56, %rsp
	.cfi_def_cfa_offset 64
	movq	%rdi, %rax
	movq	%rdi, %rcx
	addq	$8, %rcx
	movq	%rdi, 32(%rsp)
	movq	%rax, %rdi
	movq	%rcx, %rsi
	callq	_ZN4core3cmp5impls57_$LT$impl$u20$core..cmp..PartialOrd$u20$for$u20$usize$GT$2lt17h05a926630260071dE
	movb	%al, 31(%rsp)
	movb	31(%rsp), %al
	testb	$1, %al
	jne	.LBB141_3
	jmp	.LBB141_2
.LBB141_2:
	movq	$0, 40(%rsp)
	jmp	.LBB141_7
.LBB141_3:
	movq	32(%rsp), %rax
	movq	%rax, %rdi
	callq	_ZN4core5clone5impls54_$LT$impl$u20$core..clone..Clone$u20$for$u20$usize$GT$5clone17hcb6747d86c6d7bc2E
	movq	%rax, 16(%rsp)
	movq	16(%rsp), %rdi
	movl	$1, %esi
	callq	_ZN49_$LT$usize$u20$as$u20$core..iter..range..Step$GT$17forward_unchecked17h2015ea2a099ff553E
	movq	%rax, 8(%rsp)
	movq	32(%rsp), %rax
	movq	%rax, %rdi
	movq	8(%rsp), %rsi
	callq	_ZN4core3mem7replace17heb7b6f6d3a6a53b6E
	movq	%rax, (%rsp)
	movq	(%rsp), %rax
	movq	%rax, 48(%rsp)
	movq	$1, 40(%rsp)
.LBB141_7:
	movq	40(%rsp), %rax
	movq	48(%rsp), %rdx
	addq	$56, %rsp
	.cfi_def_cfa_offset 8
	retq
.Lfunc_end141:
	.size	_ZN4core4iter5range101_$LT$impl$u20$core..iter..traits..iterator..Iterator$u20$for$u20$core..ops..range..Range$LT$A$GT$$GT$4next17he1035c1a886b5198E, .Lfunc_end141-_ZN4core4iter5range101_$LT$impl$u20$core..iter..traits..iterator..Iterator$u20$for$u20$core..ops..range..Range$LT$A$GT$$GT$4next17he1035c1a886b5198E
	.cfi_endproc

	.section	.text._ZN4core4iter6traits8iterator8Iterator3map17h83fdbb679a7f9effE,"ax",@progbits
	.p2align	4, 0x90
	.type	_ZN4core4iter6traits8iterator8Iterator3map17h83fdbb679a7f9effE,@function
_ZN4core4iter6traits8iterator8Iterator3map17h83fdbb679a7f9effE:
	.cfi_startproc
	subq	$24, %rsp
	.cfi_def_cfa_offset 32
	callq	_ZN4core4iter8adapters16Map$LT$I$C$F$GT$3new17h34c42c607e6baa5cE
	movq	%rax, 16(%rsp)
	movq	%rdx, 8(%rsp)
	movq	16(%rsp), %rax
	movq	8(%rsp), %rdx
	addq	$24, %rsp
	.cfi_def_cfa_offset 8
	retq
.Lfunc_end142:
	.size	_ZN4core4iter6traits8iterator8Iterator3map17h83fdbb679a7f9effE, .Lfunc_end142-_ZN4core4iter6traits8iterator8Iterator3map17h83fdbb679a7f9effE
	.cfi_endproc

	.section	.text._ZN4core4iter6traits8iterator8Iterator3map17h8be2812e9c29a571E,"ax",@progbits
	.p2align	4, 0x90
	.type	_ZN4core4iter6traits8iterator8Iterator3map17h8be2812e9c29a571E,@function
_ZN4core4iter6traits8iterator8Iterator3map17h8be2812e9c29a571E:
	.cfi_startproc
	subq	$72, %rsp
	.cfi_def_cfa_offset 80
	movq	%rdi, %rax
	leaq	24(%rsp), %rcx
	movq	%rcx, %rdx
	movq	%rdi, 16(%rsp)
	movq	%rdx, %rdi
	movl	$48, %edx
	movq	%rax, 8(%rsp)
	movq	%rcx, (%rsp)
	callq	memcpy@PLT
	movq	16(%rsp), %rdi
	movq	(%rsp), %rsi
	callq	_ZN4core4iter8adapters16Map$LT$I$C$F$GT$3new17h8a99d49defd72cfaE
	movq	8(%rsp), %rax
	addq	$72, %rsp
	.cfi_def_cfa_offset 8
	retq
.Lfunc_end143:
	.size	_ZN4core4iter6traits8iterator8Iterator3map17h8be2812e9c29a571E, .Lfunc_end143-_ZN4core4iter6traits8iterator8Iterator3map17h8be2812e9c29a571E
	.cfi_endproc

	.section	.text._ZN4core4iter6traits8iterator8Iterator3sum17h04e41dfcc994248eE,"ax",@progbits
	.p2align	4, 0x90
	.type	_ZN4core4iter6traits8iterator8Iterator3sum17h04e41dfcc994248eE,@function
_ZN4core4iter6traits8iterator8Iterator3sum17h04e41dfcc994248eE:
	.cfi_startproc
	subq	$72, %rsp
	.cfi_def_cfa_offset 80
	leaq	24(%rsp), %rax
	movq	%rax, %rcx
	movq	%rdi, 16(%rsp)
	movq	%rcx, %rdi
	movq	16(%rsp), %rsi
	movl	$48, %edx
	movq	%rax, 8(%rsp)
	callq	memcpy@PLT
	movq	8(%rsp), %rdi
	callq	_ZN54_$LT$i64$u20$as$u20$core..iter..traits..accum..Sum$GT$3sum17h8dbfc9d7d5d1abfeE
	movq	%rax, (%rsp)
	movq	(%rsp), %rax
	addq	$72, %rsp
	.cfi_def_cfa_offset 8
	retq
.Lfunc_end144:
	.size	_ZN4core4iter6traits8iterator8Iterator3sum17h04e41dfcc994248eE, .Lfunc_end144-_ZN4core4iter6traits8iterator8Iterator3sum17h04e41dfcc994248eE
	.cfi_endproc

	.section	.text._ZN4core4iter6traits8iterator8Iterator3zip17h0d27dbb8abf46309E,"ax",@progbits
	.p2align	4, 0x90
	.type	_ZN4core4iter6traits8iterator8Iterator3zip17h0d27dbb8abf46309E,@function
_ZN4core4iter6traits8iterator8Iterator3zip17h0d27dbb8abf46309E:
.Lfunc_begin14:
	.cfi_startproc
	.cfi_personality 155, DW.ref.rust_eh_personality
	.cfi_lsda 27, .Lexception14
	subq	$72, %rsp
	.cfi_def_cfa_offset 80
	movq	%rdi, %rax
	movb	$0, 55(%rsp)
	movb	$1, 55(%rsp)
.Ltmp70:
	movq	%rdi, 40(%rsp)
	movq	%rcx, %rdi
	movq	%rsi, 32(%rsp)
	movq	%r8, %rsi
	movq	%rdx, 24(%rsp)
	movq	%rax, 16(%rsp)
	callq	_ZN4core5slice87_$LT$impl$u20$core..iter..traits..collect..IntoIterator$u20$for$u20$$RF$$u5b$T$u5d$$GT$9into_iter17h926d8807c7b250d8E
.Ltmp71:
	movq	%rdx, 8(%rsp)
	movq	%rax, (%rsp)
	jmp	.LBB145_1
.LBB145_1:
	movb	$0, 55(%rsp)
.Ltmp72:
	movq	40(%rsp), %rdi
	movq	32(%rsp), %rsi
	movq	24(%rsp), %rdx
	movq	(%rsp), %rcx
	movq	8(%rsp), %r8
	callq	_ZN4core4iter8adapters3zip16Zip$LT$A$C$B$GT$3new17h1e9b32f67f609692E
.Ltmp73:
	jmp	.LBB145_3
.LBB145_2:
	movq	56(%rsp), %rdi
	callq	_Unwind_Resume@PLT
	ud2
.LBB145_3:
	movb	$0, 55(%rsp)
	movq	16(%rsp), %rax
	addq	$72, %rsp
	.cfi_def_cfa_offset 8
	retq
.LBB145_4:
	.cfi_def_cfa_offset 80
	movb	$0, 55(%rsp)
	jmp	.LBB145_2
.LBB145_5:
	testb	$1, 55(%rsp)
	jne	.LBB145_4
	jmp	.LBB145_2
.LBB145_6:
.Ltmp74:
	movq	%rax, 56(%rsp)
	movl	%edx, 64(%rsp)
	jmp	.LBB145_5
.Lfunc_end145:
	.size	_ZN4core4iter6traits8iterator8Iterator3zip17h0d27dbb8abf46309E, .Lfunc_end145-_ZN4core4iter6traits8iterator8Iterator3zip17h0d27dbb8abf46309E
	.cfi_endproc
	.section	.gcc_except_table,"a",@progbits
	.p2align	2
GCC_except_table145:
.Lexception14:
	.byte	255
	.byte	255
	.byte	1
	.uleb128 .Lcst_end14-.Lcst_begin14
.Lcst_begin14:
	.uleb128 .Ltmp70-.Lfunc_begin14
	.uleb128 .Ltmp73-.Ltmp70
	.uleb128 .Ltmp74-.Lfunc_begin14
	.byte	0
	.uleb128 .Ltmp73-.Lfunc_begin14
	.uleb128 .Lfunc_end145-.Ltmp73
	.byte	0
	.byte	0
.Lcst_end14:
	.p2align	2

	.section	.text._ZN4core4iter6traits8iterator8Iterator4fold17h90282adf0c5c54bfE,"ax",@progbits
	.p2align	4, 0x90
	.type	_ZN4core4iter6traits8iterator8Iterator4fold17h90282adf0c5c54bfE,@function
_ZN4core4iter6traits8iterator8Iterator4fold17h90282adf0c5c54bfE:
.Lfunc_begin15:
	.cfi_startproc
	.cfi_personality 155, DW.ref.rust_eh_personality
	.cfi_lsda 27, .Lexception15
	subq	$120, %rsp
	.cfi_def_cfa_offset 128
	movb	$0, 103(%rsp)
	movb	$1, 103(%rsp)
	movq	%rsi, 48(%rsp)
	movq	%rdi, 32(%rsp)
	jmp	.LBB146_2
.LBB146_1:
	movq	104(%rsp), %rdi
	callq	_Unwind_Resume@PLT
	ud2
.LBB146_2:
.Ltmp75:
	movq	32(%rsp), %rdi
	callq	_ZN102_$LT$core..iter..adapters..zip..Zip$LT$A$C$B$GT$$u20$as$u20$core..iter..traits..iterator..Iterator$GT$4next17h65598ba248c8813fE
.Ltmp76:
	movq	%rdx, 24(%rsp)
	movq	%rax, 16(%rsp)
	jmp	.LBB146_5
.LBB146_3:
	jmp	.LBB146_1
.LBB146_4:
	jmp	.LBB146_3
.LBB146_5:
	xorl	%eax, %eax
	movl	%eax, %ecx
	movq	16(%rsp), %rdx
	movq	%rdx, 56(%rsp)
	movq	24(%rsp), %rsi
	movq	%rsi, 64(%rsp)
	cmpq	$0, 56(%rsp)
	movl	$1, %edi
	cmovbeq	%rcx, %rdi
	cmpq	$1, %rdi
	je	.LBB146_7
	jmp	.LBB146_9
.LBB146_7:
	movq	56(%rsp), %rax
	movq	64(%rsp), %rcx
	movb	$0, 103(%rsp)
	movq	48(%rsp), %rdx
	movq	%rdx, 72(%rsp)
	movq	%rax, 80(%rsp)
	movq	%rcx, 88(%rsp)
	movq	72(%rsp), %rsi
	movq	80(%rsp), %rdx
	movq	88(%rsp), %rcx
.Ltmp78:
	leaq	40(%rsp), %rdi
	callq	_ZN4core4iter8adapters8map_fold28_$u7b$$u7b$closure$u7d$$u7d$17h74332d3c9c9d487bE
.Ltmp79:
	movq	%rax, 8(%rsp)
	jmp	.LBB146_8
.LBB146_8:
	movb	$1, 103(%rsp)
	movq	8(%rsp), %rax
	movq	%rax, 48(%rsp)
	jmp	.LBB146_2
.LBB146_9:
	movb	$0, 103(%rsp)
	movb	$0, 103(%rsp)
	jmp	.LBB146_11
.LBB146_11:
	movq	48(%rsp), %rax
	addq	$120, %rsp
	.cfi_def_cfa_offset 8
	retq
.LBB146_12:
	.cfi_def_cfa_offset 128
	movb	$0, 103(%rsp)
	jmp	.LBB146_4
.LBB146_13:
	testb	$1, 103(%rsp)
	jne	.LBB146_12
	jmp	.LBB146_4
.LBB146_14:
	jmp	.LBB146_13
.LBB146_15:
.Ltmp77:
	movq	%rax, 104(%rsp)
	movl	%edx, 112(%rsp)
	jmp	.LBB146_13
.LBB146_16:
.Ltmp80:
	movq	%rax, 104(%rsp)
	movl	%edx, 112(%rsp)
	jmp	.LBB146_14
.Lfunc_end146:
	.size	_ZN4core4iter6traits8iterator8Iterator4fold17h90282adf0c5c54bfE, .Lfunc_end146-_ZN4core4iter6traits8iterator8Iterator4fold17h90282adf0c5c54bfE
	.cfi_endproc
	.section	.gcc_except_table,"a",@progbits
	.p2align	2
GCC_except_table146:
.Lexception15:
	.byte	255
	.byte	255
	.byte	1
	.uleb128 .Lcst_end15-.Lcst_begin15
.Lcst_begin15:
	.uleb128 .Lfunc_begin15-.Lfunc_begin15
	.uleb128 .Ltmp75-.Lfunc_begin15
	.byte	0
	.byte	0
	.uleb128 .Ltmp75-.Lfunc_begin15
	.uleb128 .Ltmp76-.Ltmp75
	.uleb128 .Ltmp77-.Lfunc_begin15
	.byte	0
	.uleb128 .Ltmp78-.Lfunc_begin15
	.uleb128 .Ltmp79-.Ltmp78
	.uleb128 .Ltmp80-.Lfunc_begin15
	.byte	0
.Lcst_end15:
	.p2align	2

	.section	.text._ZN4core4iter6traits8iterator8Iterator4fold17h9245806e3e536551E,"ax",@progbits
	.p2align	4, 0x90
	.type	_ZN4core4iter6traits8iterator8Iterator4fold17h9245806e3e536551E,@function
_ZN4core4iter6traits8iterator8Iterator4fold17h9245806e3e536551E:
.Lfunc_begin16:
	.cfi_startproc
	.cfi_personality 155, DW.ref.rust_eh_personality
	.cfi_lsda 27, .Lexception16
	subq	$88, %rsp
	.cfi_def_cfa_offset 96
	movq	%rdi, 24(%rsp)
	movq	%rsi, 32(%rsp)
	movb	$0, 71(%rsp)
	movb	$1, 71(%rsp)
	movq	%rdx, 16(%rsp)
	jmp	.LBB147_2
.LBB147_1:
	movq	72(%rsp), %rdi
	callq	_Unwind_Resume@PLT
	ud2
.LBB147_2:
.Ltmp81:
	leaq	24(%rsp), %rdi
	callq	_ZN85_$LT$core..slice..Iter$LT$T$GT$$u20$as$u20$core..iter..traits..iterator..Iterator$GT$4next17hefe725ddb690eeecE
.Ltmp82:
	movq	%rax, 8(%rsp)
	jmp	.LBB147_5
.LBB147_3:
	jmp	.LBB147_1
.LBB147_4:
	movq	16(%rsp), %rdi
	callq	_ZN4core3ptr13drop_in_place17hbb27f82c0b2645c5E
	jmp	.LBB147_3
.LBB147_5:
	xorl	%eax, %eax
	movl	%eax, %ecx
	movq	8(%rsp), %rdx
	movq	%rdx, 48(%rsp)
	cmpq	$0, 48(%rsp)
	movl	$1, %esi
	cmovbeq	%rcx, %rsi
	cmpq	$1, %rsi
	je	.LBB147_7
	jmp	.LBB147_9
.LBB147_7:
	movq	48(%rsp), %rax
	movb	$0, 71(%rsp)
	movq	%rax, 56(%rsp)
	movq	56(%rsp), %rsi
.Ltmp87:
	movq	16(%rsp), %rdi
	callq	_ZN4core4iter8adapters8map_fold28_$u7b$$u7b$closure$u7d$$u7d$17h4f3e6ea84212df23E
.Ltmp88:
	jmp	.LBB147_8
.LBB147_8:
	movb	$1, 71(%rsp)
	jmp	.LBB147_2
.LBB147_9:
	movb	$0, 71(%rsp)
.Ltmp84:
	movq	16(%rsp), %rdi
	callq	_ZN4core3ptr13drop_in_place17hbb27f82c0b2645c5E
.Ltmp85:
	jmp	.LBB147_10
.LBB147_10:
	jmp	.LBB147_11
.LBB147_11:
	addq	$88, %rsp
	.cfi_def_cfa_offset 8
	retq
.LBB147_12:
	.cfi_def_cfa_offset 96
	movb	$0, 71(%rsp)
	jmp	.LBB147_4
.LBB147_13:
	testb	$1, 71(%rsp)
	jne	.LBB147_12
	jmp	.LBB147_4
.LBB147_14:
	jmp	.LBB147_13
.LBB147_15:
.Ltmp83:
	movq	%rax, 72(%rsp)
	movl	%edx, 80(%rsp)
	jmp	.LBB147_13
.LBB147_16:
.Ltmp86:
	movq	%rax, 72(%rsp)
	movl	%edx, 80(%rsp)
	jmp	.LBB147_3
.LBB147_17:
.Ltmp89:
	movq	%rax, 72(%rsp)
	movl	%edx, 80(%rsp)
	jmp	.LBB147_14
.Lfunc_end147:
	.size	_ZN4core4iter6traits8iterator8Iterator4fold17h9245806e3e536551E, .Lfunc_end147-_ZN4core4iter6traits8iterator8Iterator4fold17h9245806e3e536551E
	.cfi_endproc
	.section	.gcc_except_table,"a",@progbits
	.p2align	2
GCC_except_table147:
.Lexception16:
	.byte	255
	.byte	255
	.byte	1
	.uleb128 .Lcst_end16-.Lcst_begin16
.Lcst_begin16:
	.uleb128 .Lfunc_begin16-.Lfunc_begin16
	.uleb128 .Ltmp81-.Lfunc_begin16
	.byte	0
	.byte	0
	.uleb128 .Ltmp81-.Lfunc_begin16
	.uleb128 .Ltmp82-.Ltmp81
	.uleb128 .Ltmp83-.Lfunc_begin16
	.byte	0
	.uleb128 .Ltmp82-.Lfunc_begin16
	.uleb128 .Ltmp87-.Ltmp82
	.byte	0
	.byte	0
	.uleb128 .Ltmp87-.Lfunc_begin16
	.uleb128 .Ltmp88-.Ltmp87
	.uleb128 .Ltmp89-.Lfunc_begin16
	.byte	0
	.uleb128 .Ltmp84-.Lfunc_begin16
	.uleb128 .Ltmp85-.Ltmp84
	.uleb128 .Ltmp86-.Lfunc_begin16
	.byte	0
.Lcst_end16:
	.p2align	2

	.section	.text._ZN4core4iter6traits8iterator8Iterator7collect17hbe0b0ff327b0675bE,"ax",@progbits
	.p2align	4, 0x90
	.type	_ZN4core4iter6traits8iterator8Iterator7collect17hbe0b0ff327b0675bE,@function
_ZN4core4iter6traits8iterator8Iterator7collect17hbe0b0ff327b0675bE:
	.cfi_startproc
	pushq	%rax
	.cfi_def_cfa_offset 16
	movq	%rdi, %rax
	movq	%rax, (%rsp)
	callq	_ZN95_$LT$alloc..vec..Vec$LT$T$GT$$u20$as$u20$core..iter..traits..collect..FromIterator$LT$T$GT$$GT$9from_iter17h7571cbec9202d349E
	movq	(%rsp), %rax
	popq	%rcx
	.cfi_def_cfa_offset 8
	retq
.Lfunc_end148:
	.size	_ZN4core4iter6traits8iterator8Iterator7collect17hbe0b0ff327b0675bE, .Lfunc_end148-_ZN4core4iter6traits8iterator8Iterator7collect17hbe0b0ff327b0675bE
	.cfi_endproc

	.section	.text._ZN4core4iter6traits8iterator8Iterator8for_each17hd787537746847a72E,"ax",@progbits
	.p2align	4, 0x90
	.type	_ZN4core4iter6traits8iterator8Iterator8for_each17hd787537746847a72E,@function
_ZN4core4iter6traits8iterator8Iterator8for_each17hd787537746847a72E:
.Lfunc_begin17:
	.cfi_startproc
	.cfi_personality 155, DW.ref.rust_eh_personality
	.cfi_lsda 27, .Lexception17
	subq	$104, %rsp
	.cfi_def_cfa_offset 112
	movb	$0, 87(%rsp)
	movb	$1, 87(%rsp)
	movq	16(%rdx), %rax
	movq	%rax, 64(%rsp)
	movups	(%rdx), %xmm0
	movaps	%xmm0, 48(%rsp)
.Ltmp90:
	leaq	24(%rsp), %rax
	leaq	48(%rsp), %rcx
	movq	%rdi, 16(%rsp)
	movq	%rax, %rdi
	movq	%rsi, 8(%rsp)
	movq	%rcx, %rsi
	callq	_ZN4core4iter6traits8iterator8Iterator8for_each4call17h8b22c13940ddabc7E
.Ltmp91:
	jmp	.LBB149_1
.LBB149_1:
	movb	$0, 87(%rsp)
.Ltmp92:
	leaq	24(%rsp), %rdx
	movq	16(%rsp), %rdi
	movq	8(%rsp), %rsi
	callq	_ZN97_$LT$core..iter..adapters..Map$LT$I$C$F$GT$$u20$as$u20$core..iter..traits..iterator..Iterator$GT$4fold17h5c0ec20fa72b0399E
.Ltmp93:
	jmp	.LBB149_3
.LBB149_2:
	movq	88(%rsp), %rdi
	callq	_Unwind_Resume@PLT
	ud2
.LBB149_3:
	movb	$0, 87(%rsp)
	addq	$104, %rsp
	.cfi_def_cfa_offset 8
	retq
.LBB149_4:
	.cfi_def_cfa_offset 112
	movb	$0, 87(%rsp)
	jmp	.LBB149_2
.LBB149_5:
	testb	$1, 87(%rsp)
	jne	.LBB149_4
	jmp	.LBB149_2
.LBB149_6:
.Ltmp94:
	movq	%rax, 88(%rsp)
	movl	%edx, 96(%rsp)
	jmp	.LBB149_5
.Lfunc_end149:
	.size	_ZN4core4iter6traits8iterator8Iterator8for_each17hd787537746847a72E, .Lfunc_end149-_ZN4core4iter6traits8iterator8Iterator8for_each17hd787537746847a72E
	.cfi_endproc
	.section	.gcc_except_table,"a",@progbits
	.p2align	2
GCC_except_table149:
.Lexception17:
	.byte	255
	.byte	255
	.byte	1
	.uleb128 .Lcst_end17-.Lcst_begin17
.Lcst_begin17:
	.uleb128 .Ltmp90-.Lfunc_begin17
	.uleb128 .Ltmp93-.Ltmp90
	.uleb128 .Ltmp94-.Lfunc_begin17
	.byte	0
	.uleb128 .Ltmp93-.Lfunc_begin17
	.uleb128 .Lfunc_end149-.Ltmp93
	.byte	0
	.byte	0
.Lcst_end17:
	.p2align	2

	.section	.text._ZN4core4iter6traits8iterator8Iterator8for_each4call17h8b22c13940ddabc7E,"ax",@progbits
	.p2align	4, 0x90
	.type	_ZN4core4iter6traits8iterator8Iterator8for_each4call17h8b22c13940ddabc7E,@function
_ZN4core4iter6traits8iterator8Iterator8for_each4call17h8b22c13940ddabc7E:
	.cfi_startproc
	movq	%rdi, %rax
	movq	(%rsi), %rcx
	movq	%rcx, (%rdi)
	movq	8(%rsi), %rcx
	movq	%rcx, 8(%rdi)
	movq	16(%rsi), %rcx
	movq	%rcx, 16(%rdi)
	retq
.Lfunc_end150:
	.size	_ZN4core4iter6traits8iterator8Iterator8for_each4call17h8b22c13940ddabc7E, .Lfunc_end150-_ZN4core4iter6traits8iterator8Iterator8for_each4call17h8b22c13940ddabc7E
	.cfi_endproc

	.section	".text._ZN4core4iter6traits8iterator8Iterator8for_each4call28_$u7b$$u7b$closure$u7d$$u7d$17h3451a456a13471bfE","ax",@progbits
	.p2align	4, 0x90
	.type	_ZN4core4iter6traits8iterator8Iterator8for_each4call28_$u7b$$u7b$closure$u7d$$u7d$17h3451a456a13471bfE,@function
_ZN4core4iter6traits8iterator8Iterator8for_each4call28_$u7b$$u7b$closure$u7d$$u7d$17h3451a456a13471bfE:
	.cfi_startproc
	pushq	%rax
	.cfi_def_cfa_offset 16
	movl	%esi, 4(%rsp)
	movl	4(%rsp), %esi
	callq	_ZN80_$LT$alloc..vec..Vec$LT$T$GT$$u20$as$u20$alloc..vec..SpecExtend$LT$T$C$I$GT$$GT$11spec_extend28_$u7b$$u7b$closure$u7d$$u7d$17h6ee919e18b81d56bE
	popq	%rax
	.cfi_def_cfa_offset 8
	retq
.Lfunc_end151:
	.size	_ZN4core4iter6traits8iterator8Iterator8for_each4call28_$u7b$$u7b$closure$u7d$$u7d$17h3451a456a13471bfE, .Lfunc_end151-_ZN4core4iter6traits8iterator8Iterator8for_each4call28_$u7b$$u7b$closure$u7d$$u7d$17h3451a456a13471bfE
	.cfi_endproc

	.section	".text._ZN4core4iter8adapters16Map$LT$I$C$F$GT$3new17h34c42c607e6baa5cE","ax",@progbits
	.p2align	4, 0x90
	.type	_ZN4core4iter8adapters16Map$LT$I$C$F$GT$3new17h34c42c607e6baa5cE,@function
_ZN4core4iter8adapters16Map$LT$I$C$F$GT$3new17h34c42c607e6baa5cE:
	.cfi_startproc
	subq	$16, %rsp
	.cfi_def_cfa_offset 24
	movq	%rdi, (%rsp)
	movq	%rsi, 8(%rsp)
	movq	(%rsp), %rax
	movq	8(%rsp), %rdx
	addq	$16, %rsp
	.cfi_def_cfa_offset 8
	retq
.Lfunc_end152:
	.size	_ZN4core4iter8adapters16Map$LT$I$C$F$GT$3new17h34c42c607e6baa5cE, .Lfunc_end152-_ZN4core4iter8adapters16Map$LT$I$C$F$GT$3new17h34c42c607e6baa5cE
	.cfi_endproc

	.section	".text._ZN4core4iter8adapters16Map$LT$I$C$F$GT$3new17h8a99d49defd72cfaE","ax",@progbits
	.p2align	4, 0x90
	.type	_ZN4core4iter8adapters16Map$LT$I$C$F$GT$3new17h8a99d49defd72cfaE,@function
_ZN4core4iter8adapters16Map$LT$I$C$F$GT$3new17h8a99d49defd72cfaE:
	.cfi_startproc
	subq	$88, %rsp
	.cfi_def_cfa_offset 96
	movq	%rdi, %rax
	leaq	40(%rsp), %rcx
	movq	%rcx, %rdx
	movq	%rdi, 32(%rsp)
	movq	%rdx, %rdi
	movl	$48, %edx
	movq	%rdx, 24(%rsp)
	movq	%rax, 16(%rsp)
	movq	%rcx, 8(%rsp)
	callq	memcpy@PLT
	movq	32(%rsp), %rax
	movq	8(%rsp), %rcx
	movq	%rax, %rdi
	movq	%rcx, %rsi
	movq	24(%rsp), %rdx
	callq	memcpy@PLT
	movq	16(%rsp), %rax
	addq	$88, %rsp
	.cfi_def_cfa_offset 8
	retq
.Lfunc_end153:
	.size	_ZN4core4iter8adapters16Map$LT$I$C$F$GT$3new17h8a99d49defd72cfaE, .Lfunc_end153-_ZN4core4iter8adapters16Map$LT$I$C$F$GT$3new17h8a99d49defd72cfaE
	.cfi_endproc

	.section	".text._ZN4core4iter8adapters3zip16Zip$LT$A$C$B$GT$3new17h1e9b32f67f609692E","ax",@progbits
	.p2align	4, 0x90
	.type	_ZN4core4iter8adapters3zip16Zip$LT$A$C$B$GT$3new17h1e9b32f67f609692E,@function
_ZN4core4iter8adapters3zip16Zip$LT$A$C$B$GT$3new17h1e9b32f67f609692E:
	.cfi_startproc
	pushq	%rax
	.cfi_def_cfa_offset 16
	movq	%rdi, %rax
	movq	%rax, (%rsp)
	callq	_ZN111_$LT$core..iter..adapters..zip..Zip$LT$A$C$B$GT$$u20$as$u20$core..iter..adapters..zip..ZipImpl$LT$A$C$B$GT$$GT$3new17h4af788ea7ad61072E
	movq	(%rsp), %rax
	popq	%rcx
	.cfi_def_cfa_offset 8
	retq
.Lfunc_end154:
	.size	_ZN4core4iter8adapters3zip16Zip$LT$A$C$B$GT$3new17h1e9b32f67f609692E, .Lfunc_end154-_ZN4core4iter8adapters3zip16Zip$LT$A$C$B$GT$3new17h1e9b32f67f609692E
	.cfi_endproc

	.section	.text._ZN4core4iter8adapters8map_fold17h187ade04ed6e6e90E,"ax",@progbits
	.p2align	4, 0x90
	.type	_ZN4core4iter8adapters8map_fold17h187ade04ed6e6e90E,@function
_ZN4core4iter8adapters8map_fold17h187ade04ed6e6e90E:
	.cfi_startproc
	movq	%rdi, %rax
	movq	(%rsi), %rcx
	movq	%rcx, (%rdi)
	movq	8(%rsi), %rcx
	movq	%rcx, 8(%rdi)
	movq	16(%rsi), %rcx
	movq	%rcx, 16(%rdi)
	retq
.Lfunc_end155:
	.size	_ZN4core4iter8adapters8map_fold17h187ade04ed6e6e90E, .Lfunc_end155-_ZN4core4iter8adapters8map_fold17h187ade04ed6e6e90E
	.cfi_endproc

	.section	.text._ZN4core4iter8adapters8map_fold17hf2f068cb9bacc7cdE,"ax",@progbits
	.p2align	4, 0x90
	.type	_ZN4core4iter8adapters8map_fold17hf2f068cb9bacc7cdE,@function
_ZN4core4iter8adapters8map_fold17hf2f068cb9bacc7cdE:
	.cfi_startproc
	pushq	%rax
	.cfi_def_cfa_offset 16
	popq	%rax
	.cfi_def_cfa_offset 8
	retq
.Lfunc_end156:
	.size	_ZN4core4iter8adapters8map_fold17hf2f068cb9bacc7cdE, .Lfunc_end156-_ZN4core4iter8adapters8map_fold17hf2f068cb9bacc7cdE
	.cfi_endproc

	.section	".text._ZN4core4iter8adapters8map_fold28_$u7b$$u7b$closure$u7d$$u7d$17h4f3e6ea84212df23E","ax",@progbits
	.p2align	4, 0x90
	.type	_ZN4core4iter8adapters8map_fold28_$u7b$$u7b$closure$u7d$$u7d$17h4f3e6ea84212df23E,@function
_ZN4core4iter8adapters8map_fold28_$u7b$$u7b$closure$u7d$$u7d$17h4f3e6ea84212df23E:
.Lfunc_begin18:
	.cfi_startproc
	.cfi_personality 155, DW.ref.rust_eh_personality
	.cfi_lsda 27, .Lexception18
	subq	$56, %rsp
	.cfi_def_cfa_offset 64
	movb	$0, 39(%rsp)
	movq	%rdi, %rax
	movb	$1, 39(%rsp)
	movq	%rsi, 24(%rsp)
	movq	24(%rsp), %rsi
.Ltmp95:
	movq	%rax, 8(%rsp)
	callq	_ZN4main4main28_$u7b$$u7b$closure$u7d$$u7d$17he9ec6729de112a4eE
.Ltmp96:
	movl	%eax, 4(%rsp)
	jmp	.LBB157_2
.LBB157_1:
	movq	40(%rsp), %rdi
	callq	_Unwind_Resume@PLT
	ud2
.LBB157_2:
	movb	$0, 39(%rsp)
	movl	4(%rsp), %eax
	movl	%eax, 20(%rsp)
	movl	20(%rsp), %esi
.Ltmp97:
	movq	8(%rsp), %rdi
	callq	_ZN4core4iter6traits8iterator8Iterator8for_each4call28_$u7b$$u7b$closure$u7d$$u7d$17h3451a456a13471bfE
.Ltmp98:
	jmp	.LBB157_3
.LBB157_3:
	movb	$0, 39(%rsp)
	addq	$56, %rsp
	.cfi_def_cfa_offset 8
	retq
.LBB157_4:
	.cfi_def_cfa_offset 64
	movb	$0, 39(%rsp)
	jmp	.LBB157_1
.LBB157_5:
	testb	$1, 39(%rsp)
	jne	.LBB157_4
	jmp	.LBB157_1
.LBB157_6:
.Ltmp99:
	movq	%rax, 40(%rsp)
	movl	%edx, 48(%rsp)
	jmp	.LBB157_5
.Lfunc_end157:
	.size	_ZN4core4iter8adapters8map_fold28_$u7b$$u7b$closure$u7d$$u7d$17h4f3e6ea84212df23E, .Lfunc_end157-_ZN4core4iter8adapters8map_fold28_$u7b$$u7b$closure$u7d$$u7d$17h4f3e6ea84212df23E
	.cfi_endproc
	.section	.gcc_except_table,"a",@progbits
	.p2align	2
GCC_except_table157:
.Lexception18:
	.byte	255
	.byte	255
	.byte	1
	.uleb128 .Lcst_end18-.Lcst_begin18
.Lcst_begin18:
	.uleb128 .Ltmp95-.Lfunc_begin18
	.uleb128 .Ltmp96-.Ltmp95
	.uleb128 .Ltmp99-.Lfunc_begin18
	.byte	0
	.uleb128 .Ltmp96-.Lfunc_begin18
	.uleb128 .Ltmp97-.Ltmp96
	.byte	0
	.byte	0
	.uleb128 .Ltmp97-.Lfunc_begin18
	.uleb128 .Ltmp98-.Ltmp97
	.uleb128 .Ltmp99-.Lfunc_begin18
	.byte	0
.Lcst_end18:
	.p2align	2

	.section	".text._ZN4core4iter8adapters8map_fold28_$u7b$$u7b$closure$u7d$$u7d$17h74332d3c9c9d487bE","ax",@progbits
	.p2align	4, 0x90
	.type	_ZN4core4iter8adapters8map_fold28_$u7b$$u7b$closure$u7d$$u7d$17h74332d3c9c9d487bE,@function
_ZN4core4iter8adapters8map_fold28_$u7b$$u7b$closure$u7d$$u7d$17h74332d3c9c9d487bE:
.Lfunc_begin19:
	.cfi_startproc
	.cfi_personality 155, DW.ref.rust_eh_personality
	.cfi_lsda 27, .Lexception19
	subq	$88, %rsp
	.cfi_def_cfa_offset 96
	movb	$0, 71(%rsp)
	movq	%rdi, %rax
	movb	$1, 71(%rsp)
	movq	%rdx, 48(%rsp)
	movq	%rcx, 56(%rsp)
	movq	48(%rsp), %rcx
	movq	56(%rsp), %rdx
.Ltmp100:
	movq	%rsi, 24(%rsp)
	movq	%rcx, %rsi
	movq	%rax, 16(%rsp)
	callq	_ZN4main4main28_$u7b$$u7b$closure$u7d$$u7d$17h9dc6f80265be5abaE
.Ltmp101:
	movq	%rax, 8(%rsp)
	jmp	.LBB158_2
.LBB158_1:
	movq	72(%rsp), %rdi
	callq	_Unwind_Resume@PLT
	ud2
.LBB158_2:
	movb	$0, 71(%rsp)
	movq	24(%rsp), %rax
	movq	%rax, 32(%rsp)
	movq	8(%rsp), %rcx
	movq	%rcx, 40(%rsp)
	movq	32(%rsp), %rsi
	movq	40(%rsp), %rdx
.Ltmp102:
	movq	16(%rsp), %rdi
	callq	_ZN4core3ops8function5FnMut8call_mut17hf83f66f11d6eef24E
.Ltmp103:
	movq	%rax, (%rsp)
	jmp	.LBB158_3
.LBB158_3:
	movb	$0, 71(%rsp)
	movq	(%rsp), %rax
	addq	$88, %rsp
	.cfi_def_cfa_offset 8
	retq
.LBB158_4:
	.cfi_def_cfa_offset 96
	movb	$0, 71(%rsp)
	jmp	.LBB158_1
.LBB158_5:
	testb	$1, 71(%rsp)
	jne	.LBB158_4
	jmp	.LBB158_1
.LBB158_6:
.Ltmp104:
	movq	%rax, 72(%rsp)
	movl	%edx, 80(%rsp)
	jmp	.LBB158_5
.Lfunc_end158:
	.size	_ZN4core4iter8adapters8map_fold28_$u7b$$u7b$closure$u7d$$u7d$17h74332d3c9c9d487bE, .Lfunc_end158-_ZN4core4iter8adapters8map_fold28_$u7b$$u7b$closure$u7d$$u7d$17h74332d3c9c9d487bE
	.cfi_endproc
	.section	.gcc_except_table,"a",@progbits
	.p2align	2
GCC_except_table158:
.Lexception19:
	.byte	255
	.byte	255
	.byte	1
	.uleb128 .Lcst_end19-.Lcst_begin19
.Lcst_begin19:
	.uleb128 .Ltmp100-.Lfunc_begin19
	.uleb128 .Ltmp101-.Ltmp100
	.uleb128 .Ltmp104-.Lfunc_begin19
	.byte	0
	.uleb128 .Ltmp101-.Lfunc_begin19
	.uleb128 .Ltmp102-.Ltmp101
	.byte	0
	.byte	0
	.uleb128 .Ltmp102-.Lfunc_begin19
	.uleb128 .Ltmp103-.Ltmp102
	.uleb128 .Ltmp104-.Lfunc_begin19
	.byte	0
.Lcst_end19:
	.p2align	2

	.section	.text._ZN4core4time8Duration9from_secs17h96f3febf709dc93fE,"ax",@progbits
	.p2align	4, 0x90
	.type	_ZN4core4time8Duration9from_secs17h96f3febf709dc93fE,@function
_ZN4core4time8Duration9from_secs17h96f3febf709dc93fE:
	.cfi_startproc
	subq	$16, %rsp
	.cfi_def_cfa_offset 24
	movq	%rdi, (%rsp)
	movl	$0, 8(%rsp)
	movq	(%rsp), %rax
	movl	8(%rsp), %edx
	addq	$16, %rsp
	.cfi_def_cfa_offset 8
	retq
.Lfunc_end159:
	.size	_ZN4core4time8Duration9from_secs17h96f3febf709dc93fE, .Lfunc_end159-_ZN4core4time8Duration9from_secs17h96f3febf709dc93fE
	.cfi_endproc

	.section	.text._ZN4core5alloc6layout10size_align17h424239ed335c4d10E,"ax",@progbits
	.p2align	4, 0x90
	.type	_ZN4core5alloc6layout10size_align17h424239ed335c4d10E,@function
_ZN4core5alloc6layout10size_align17h424239ed335c4d10E:
	.cfi_startproc
	subq	$48, %rsp
	.cfi_def_cfa_offset 56
	movq	$1, 32(%rsp)
	movq	32(%rsp), %rax
	movq	%rax, 8(%rsp)
	movq	$1, 40(%rsp)
	movq	40(%rsp), %rax
	movq	%rax, (%rsp)
	movq	8(%rsp), %rax
	movq	%rax, 16(%rsp)
	movq	(%rsp), %rcx
	movq	%rcx, 24(%rsp)
	movq	16(%rsp), %rax
	movq	24(%rsp), %rdx
	addq	$48, %rsp
	.cfi_def_cfa_offset 8
	retq
.Lfunc_end160:
	.size	_ZN4core5alloc6layout10size_align17h424239ed335c4d10E, .Lfunc_end160-_ZN4core5alloc6layout10size_align17h424239ed335c4d10E
	.cfi_endproc

	.section	.text._ZN4core5alloc6layout10size_align17hdcfefa47de5ee21eE,"ax",@progbits
	.p2align	4, 0x90
	.type	_ZN4core5alloc6layout10size_align17hdcfefa47de5ee21eE,@function
_ZN4core5alloc6layout10size_align17hdcfefa47de5ee21eE:
	.cfi_startproc
	subq	$48, %rsp
	.cfi_def_cfa_offset 56
	movq	$4, 32(%rsp)
	movq	32(%rsp), %rax
	movq	%rax, 8(%rsp)
	movq	$4, 40(%rsp)
	movq	40(%rsp), %rax
	movq	%rax, (%rsp)
	movq	8(%rsp), %rax
	movq	%rax, 16(%rsp)
	movq	(%rsp), %rcx
	movq	%rcx, 24(%rsp)
	movq	16(%rsp), %rax
	movq	24(%rsp), %rdx
	addq	$48, %rsp
	.cfi_def_cfa_offset 8
	retq
.Lfunc_end161:
	.size	_ZN4core5alloc6layout10size_align17hdcfefa47de5ee21eE, .Lfunc_end161-_ZN4core5alloc6layout10size_align17hdcfefa47de5ee21eE
	.cfi_endproc

	.section	.text._ZN4core5alloc6layout6Layout12pad_to_align17hab2ad0c037c4d907E,"ax",@progbits
	.p2align	4, 0x90
	.type	_ZN4core5alloc6layout6Layout12pad_to_align17hab2ad0c037c4d907E,@function
_ZN4core5alloc6layout6Layout12pad_to_align17hab2ad0c037c4d907E:
	.cfi_startproc
	subq	$88, %rsp
	.cfi_def_cfa_offset 96
	movq	%rdi, 80(%rsp)
	callq	_ZN4core5alloc6layout6Layout5align17h66176d46be05d28eE
	movq	%rax, 72(%rsp)
	movq	80(%rsp), %rdi
	movq	72(%rsp), %rsi
	callq	_ZN4core5alloc6layout6Layout18padding_needed_for17hbee5dd819273abf2E
	movq	%rax, 64(%rsp)
	movq	80(%rsp), %rdi
	callq	_ZN4core5alloc6layout6Layout4size17hb929b93d984b458aE
	movq	%rax, 56(%rsp)
	movq	56(%rsp), %rax
	movq	64(%rsp), %rcx
	addq	%rcx, %rax
	movq	80(%rsp), %rdi
	movq	%rax, 48(%rsp)
	callq	_ZN4core5alloc6layout6Layout5align17h66176d46be05d28eE
	movq	%rax, 40(%rsp)
	movq	48(%rsp), %rdi
	movq	40(%rsp), %rsi
	callq	_ZN4core5alloc6layout6Layout15from_size_align17hae5e7d806b1c6f97E
	movq	%rax, 32(%rsp)
	movq	%rdx, 24(%rsp)
	leaq	.L__unnamed_5(%rip), %rax
	movq	32(%rsp), %rdi
	movq	24(%rsp), %rsi
	movq	%rax, %rdx
	callq	_ZN4core6result19Result$LT$T$C$E$GT$6unwrap17h3ca8d503f2c98a1eE
	movq	%rax, 16(%rsp)
	movq	%rdx, 8(%rsp)
	movq	16(%rsp), %rax
	movq	8(%rsp), %rdx
	addq	$88, %rsp
	.cfi_def_cfa_offset 8
	retq
.Lfunc_end162:
	.size	_ZN4core5alloc6layout6Layout12pad_to_align17hab2ad0c037c4d907E, .Lfunc_end162-_ZN4core5alloc6layout6Layout12pad_to_align17hab2ad0c037c4d907E
	.cfi_endproc

	.section	.text._ZN4core5alloc6layout6Layout15from_size_align17hae5e7d806b1c6f97E,"ax",@progbits
	.p2align	4, 0x90
	.type	_ZN4core5alloc6layout6Layout15from_size_align17hae5e7d806b1c6f97E,@function
_ZN4core5alloc6layout6Layout15from_size_align17hae5e7d806b1c6f97E:
	.cfi_startproc
	subq	$56, %rsp
	.cfi_def_cfa_offset 64
	movq	%rdi, 32(%rsp)
	movq	%rsi, %rdi
	movq	%rsi, 24(%rsp)
	callq	_ZN4core3num23_$LT$impl$u20$usize$GT$15is_power_of_two17h8b19a46142dbec92E
	movb	%al, 23(%rsp)
	movb	23(%rsp), %al
	xorb	$-1, %al
	testb	$1, %al
	jne	.LBB163_3
	movq	24(%rsp), %rax
	subq	$1, %rax
	movq	$-1, %rcx
	subq	%rax, %rcx
	movq	32(%rsp), %rax
	cmpq	%rcx, %rax
	ja	.LBB163_6
	jmp	.LBB163_5
.LBB163_3:
	movq	$0, 48(%rsp)
.LBB163_4:
	movq	40(%rsp), %rax
	movq	48(%rsp), %rdx
	addq	$56, %rsp
	.cfi_def_cfa_offset 8
	retq
.LBB163_5:
	.cfi_def_cfa_offset 64
	movq	32(%rsp), %rdi
	movq	24(%rsp), %rsi
	callq	_ZN4core5alloc6layout6Layout25from_size_align_unchecked17ha33e1ad4e9db39f5E
	movq	%rax, 8(%rsp)
	movq	%rdx, (%rsp)
	jmp	.LBB163_7
.LBB163_6:
	movq	$0, 48(%rsp)
	jmp	.LBB163_4
.LBB163_7:
	movq	8(%rsp), %rax
	movq	%rax, 40(%rsp)
	movq	(%rsp), %rcx
	movq	%rcx, 48(%rsp)
	jmp	.LBB163_4
.Lfunc_end163:
	.size	_ZN4core5alloc6layout6Layout15from_size_align17hae5e7d806b1c6f97E, .Lfunc_end163-_ZN4core5alloc6layout6Layout15from_size_align17hae5e7d806b1c6f97E
	.cfi_endproc

	.section	.text._ZN4core5alloc6layout6Layout18padding_needed_for17hbee5dd819273abf2E,"ax",@progbits
	.p2align	4, 0x90
	.type	_ZN4core5alloc6layout6Layout18padding_needed_for17hbee5dd819273abf2E,@function
_ZN4core5alloc6layout6Layout18padding_needed_for17hbee5dd819273abf2E:
	.cfi_startproc
	subq	$56, %rsp
	.cfi_def_cfa_offset 64
	movq	%rsi, 48(%rsp)
	callq	_ZN4core5alloc6layout6Layout4size17hb929b93d984b458aE
	movq	%rax, 40(%rsp)
	movq	40(%rsp), %rdi
	movq	48(%rsp), %rsi
	callq	_ZN4core3num23_$LT$impl$u20$usize$GT$12wrapping_add17h454d4fd0e1b68355E
	movq	%rax, 32(%rsp)
	movq	32(%rsp), %rdi
	movl	$1, %esi
	callq	_ZN4core3num23_$LT$impl$u20$usize$GT$12wrapping_sub17h86c24ee04f06f4f6E
	movq	%rax, 24(%rsp)
	movq	48(%rsp), %rdi
	movl	$1, %esi
	callq	_ZN4core3num23_$LT$impl$u20$usize$GT$12wrapping_sub17h86c24ee04f06f4f6E
	movq	%rax, 16(%rsp)
	movq	16(%rsp), %rax
	xorq	$-1, %rax
	movq	24(%rsp), %rcx
	andq	%rax, %rcx
	movq	%rcx, %rdi
	movq	40(%rsp), %rsi
	callq	_ZN4core3num23_$LT$impl$u20$usize$GT$12wrapping_sub17h86c24ee04f06f4f6E
	movq	%rax, 8(%rsp)
	movq	8(%rsp), %rax
	addq	$56, %rsp
	.cfi_def_cfa_offset 8
	retq
.Lfunc_end164:
	.size	_ZN4core5alloc6layout6Layout18padding_needed_for17hbee5dd819273abf2E, .Lfunc_end164-_ZN4core5alloc6layout6Layout18padding_needed_for17hbee5dd819273abf2E
	.cfi_endproc

	.section	.text._ZN4core5alloc6layout6Layout25from_size_align_unchecked17ha33e1ad4e9db39f5E,"ax",@progbits
	.p2align	4, 0x90
	.type	_ZN4core5alloc6layout6Layout25from_size_align_unchecked17ha33e1ad4e9db39f5E,@function
_ZN4core5alloc6layout6Layout25from_size_align_unchecked17ha33e1ad4e9db39f5E:
	.cfi_startproc
	subq	$40, %rsp
	.cfi_def_cfa_offset 48
	movq	%rdi, 16(%rsp)
	movq	%rsi, %rdi
	callq	_ZN4core3num12NonZeroUsize13new_unchecked17h5d15e2bfce3adba2E
	movq	%rax, 8(%rsp)
	movq	16(%rsp), %rax
	movq	%rax, 24(%rsp)
	movq	8(%rsp), %rcx
	movq	%rcx, 32(%rsp)
	movq	24(%rsp), %rax
	movq	32(%rsp), %rdx
	addq	$40, %rsp
	.cfi_def_cfa_offset 8
	retq
.Lfunc_end165:
	.size	_ZN4core5alloc6layout6Layout25from_size_align_unchecked17ha33e1ad4e9db39f5E, .Lfunc_end165-_ZN4core5alloc6layout6Layout25from_size_align_unchecked17ha33e1ad4e9db39f5E
	.cfi_endproc

	.section	.text._ZN4core5alloc6layout6Layout3new17h47dc805e8b3360afE,"ax",@progbits
	.p2align	4, 0x90
	.type	_ZN4core5alloc6layout6Layout3new17h47dc805e8b3360afE,@function
_ZN4core5alloc6layout6Layout3new17h47dc805e8b3360afE:
	.cfi_startproc
	subq	$40, %rsp
	.cfi_def_cfa_offset 48
	callq	_ZN4core5alloc6layout10size_align17hdcfefa47de5ee21eE
	movq	%rax, 32(%rsp)
	movq	%rdx, 24(%rsp)
	movq	32(%rsp), %rdi
	movq	24(%rsp), %rsi
	callq	_ZN4core5alloc6layout6Layout25from_size_align_unchecked17ha33e1ad4e9db39f5E
	movq	%rax, 16(%rsp)
	movq	%rdx, 8(%rsp)
	movq	16(%rsp), %rax
	movq	8(%rsp), %rdx
	addq	$40, %rsp
	.cfi_def_cfa_offset 8
	retq
.Lfunc_end166:
	.size	_ZN4core5alloc6layout6Layout3new17h47dc805e8b3360afE, .Lfunc_end166-_ZN4core5alloc6layout6Layout3new17h47dc805e8b3360afE
	.cfi_endproc

	.section	.text._ZN4core5alloc6layout6Layout3new17h945588ff4a57be5fE,"ax",@progbits
	.p2align	4, 0x90
	.type	_ZN4core5alloc6layout6Layout3new17h945588ff4a57be5fE,@function
_ZN4core5alloc6layout6Layout3new17h945588ff4a57be5fE:
	.cfi_startproc
	subq	$40, %rsp
	.cfi_def_cfa_offset 48
	callq	_ZN4core5alloc6layout10size_align17h424239ed335c4d10E
	movq	%rax, 32(%rsp)
	movq	%rdx, 24(%rsp)
	movq	32(%rsp), %rdi
	movq	24(%rsp), %rsi
	callq	_ZN4core5alloc6layout6Layout25from_size_align_unchecked17ha33e1ad4e9db39f5E
	movq	%rax, 16(%rsp)
	movq	%rdx, 8(%rsp)
	movq	16(%rsp), %rax
	movq	8(%rsp), %rdx
	addq	$40, %rsp
	.cfi_def_cfa_offset 8
	retq
.Lfunc_end167:
	.size	_ZN4core5alloc6layout6Layout3new17h945588ff4a57be5fE, .Lfunc_end167-_ZN4core5alloc6layout6Layout3new17h945588ff4a57be5fE
	.cfi_endproc

	.section	.text._ZN4core5alloc6layout6Layout4size17hb929b93d984b458aE,"ax",@progbits
	.p2align	4, 0x90
	.type	_ZN4core5alloc6layout6Layout4size17hb929b93d984b458aE,@function
_ZN4core5alloc6layout6Layout4size17hb929b93d984b458aE:
	.cfi_startproc
	movq	(%rdi), %rax
	retq
.Lfunc_end168:
	.size	_ZN4core5alloc6layout6Layout4size17hb929b93d984b458aE, .Lfunc_end168-_ZN4core5alloc6layout6Layout4size17hb929b93d984b458aE
	.cfi_endproc

	.section	.text._ZN4core5alloc6layout6Layout5align17h66176d46be05d28eE,"ax",@progbits
	.p2align	4, 0x90
	.type	_ZN4core5alloc6layout6Layout5align17h66176d46be05d28eE,@function
_ZN4core5alloc6layout6Layout5align17h66176d46be05d28eE:
	.cfi_startproc
	pushq	%rax
	.cfi_def_cfa_offset 16
	movq	8(%rdi), %rdi
	callq	_ZN4core3num12NonZeroUsize3get17h0de7a89a1032061eE
	movq	%rax, (%rsp)
	movq	(%rsp), %rax
	popq	%rcx
	.cfi_def_cfa_offset 8
	retq
.Lfunc_end169:
	.size	_ZN4core5alloc6layout6Layout5align17h66176d46be05d28eE, .Lfunc_end169-_ZN4core5alloc6layout6Layout5align17h66176d46be05d28eE
	.cfi_endproc

	.section	.text._ZN4core5alloc6layout6Layout5array17h1d38c43265dead5aE,"ax",@progbits
	.p2align	4, 0x90
	.type	_ZN4core5alloc6layout6Layout5array17h1d38c43265dead5aE,@function
_ZN4core5alloc6layout6Layout5array17h1d38c43265dead5aE:
	.cfi_startproc
	subq	$168, %rsp
	.cfi_def_cfa_offset 176
	movq	%rdi, 16(%rsp)
	callq	_ZN4core5alloc6layout6Layout3new17h47dc805e8b3360afE
	movq	%rdx, 136(%rsp)
	movq	%rax, 128(%rsp)
	leaq	104(%rsp), %rdi
	leaq	128(%rsp), %rsi
	movq	16(%rsp), %rdx
	callq	_ZN4core5alloc6layout6Layout6repeat17h8bc8f1b6d56a5e8aE
	leaq	80(%rsp), %rdi
	leaq	104(%rsp), %rsi
	callq	_ZN73_$LT$core..result..Result$LT$T$C$E$GT$$u20$as$u20$core..ops..try..Try$GT$11into_result17h673b94f061be4631E
	movq	88(%rsp), %rax
	testq	%rax, %rax
	sete	%cl
	movzbl	%cl, %edx
	movl	%edx, %eax
	jne	.LBB170_4
	jmp	.LBB170_11
.LBB170_11:
	jmp	.LBB170_6
.LBB170_4:
	movq	80(%rsp), %rax
	movq	%rax, 144(%rsp)
	movq	88(%rsp), %rax
	movq	%rax, 152(%rsp)
	movq	96(%rsp), %rax
	movq	%rax, 160(%rsp)
	movq	144(%rsp), %rax
	movq	%rax, 56(%rsp)
	movq	152(%rsp), %rax
	movq	%rax, 64(%rsp)
	movq	160(%rsp), %rax
	movq	%rax, 72(%rsp)
	movq	56(%rsp), %rax
	movq	64(%rsp), %rcx
	movq	%rax, 40(%rsp)
	movq	%rcx, 48(%rsp)
	leaq	40(%rsp), %rdi
	callq	_ZN4core5alloc6layout6Layout12pad_to_align17hab2ad0c037c4d907E
	movq	%rax, 8(%rsp)
	movq	%rdx, (%rsp)
	jmp	.LBB170_10
	.cfi_def_cfa_offset 8
	ud2
.LBB170_6:
	.cfi_def_cfa_offset 176
	callq	_ZN50_$LT$T$u20$as$u20$core..convert..From$LT$T$GT$$GT$4from17h75d2b286c8ffbbabE
	jmp	.LBB170_8
.LBB170_7:
	movq	24(%rsp), %rax
	movq	32(%rsp), %rdx
	addq	$168, %rsp
	.cfi_def_cfa_offset 8
	retq
.LBB170_8:
	.cfi_def_cfa_offset 176
	callq	_ZN73_$LT$core..result..Result$LT$T$C$E$GT$$u20$as$u20$core..ops..try..Try$GT$10from_error17hde99a1acc01bd63bE
	movq	%rdx, 32(%rsp)
	movq	%rax, 24(%rsp)
	jmp	.LBB170_7
.LBB170_10:
	movq	8(%rsp), %rax
	movq	%rax, 24(%rsp)
	movq	(%rsp), %rcx
	movq	%rcx, 32(%rsp)
	jmp	.LBB170_7
.Lfunc_end170:
	.size	_ZN4core5alloc6layout6Layout5array17h1d38c43265dead5aE, .Lfunc_end170-_ZN4core5alloc6layout6Layout5array17h1d38c43265dead5aE
	.cfi_endproc

	.section	.text._ZN4core5alloc6layout6Layout5array17h7d75cb2b5c1c10d0E,"ax",@progbits
	.p2align	4, 0x90
	.type	_ZN4core5alloc6layout6Layout5array17h7d75cb2b5c1c10d0E,@function
_ZN4core5alloc6layout6Layout5array17h7d75cb2b5c1c10d0E:
	.cfi_startproc
	subq	$168, %rsp
	.cfi_def_cfa_offset 176
	movq	%rdi, 16(%rsp)
	callq	_ZN4core5alloc6layout6Layout3new17h945588ff4a57be5fE
	movq	%rdx, 136(%rsp)
	movq	%rax, 128(%rsp)
	leaq	104(%rsp), %rdi
	leaq	128(%rsp), %rsi
	movq	16(%rsp), %rdx
	callq	_ZN4core5alloc6layout6Layout6repeat17h8bc8f1b6d56a5e8aE
	leaq	80(%rsp), %rdi
	leaq	104(%rsp), %rsi
	callq	_ZN73_$LT$core..result..Result$LT$T$C$E$GT$$u20$as$u20$core..ops..try..Try$GT$11into_result17h673b94f061be4631E
	movq	88(%rsp), %rax
	testq	%rax, %rax
	sete	%cl
	movzbl	%cl, %edx
	movl	%edx, %eax
	jne	.LBB171_4
	jmp	.LBB171_11
.LBB171_11:
	jmp	.LBB171_6
.LBB171_4:
	movq	80(%rsp), %rax
	movq	%rax, 144(%rsp)
	movq	88(%rsp), %rax
	movq	%rax, 152(%rsp)
	movq	96(%rsp), %rax
	movq	%rax, 160(%rsp)
	movq	144(%rsp), %rax
	movq	%rax, 56(%rsp)
	movq	152(%rsp), %rax
	movq	%rax, 64(%rsp)
	movq	160(%rsp), %rax
	movq	%rax, 72(%rsp)
	movq	56(%rsp), %rax
	movq	64(%rsp), %rcx
	movq	%rax, 40(%rsp)
	movq	%rcx, 48(%rsp)
	leaq	40(%rsp), %rdi
	callq	_ZN4core5alloc6layout6Layout12pad_to_align17hab2ad0c037c4d907E
	movq	%rax, 8(%rsp)
	movq	%rdx, (%rsp)
	jmp	.LBB171_10
	.cfi_def_cfa_offset 8
	ud2
.LBB171_6:
	.cfi_def_cfa_offset 176
	callq	_ZN50_$LT$T$u20$as$u20$core..convert..From$LT$T$GT$$GT$4from17h75d2b286c8ffbbabE
	jmp	.LBB171_8
.LBB171_7:
	movq	24(%rsp), %rax
	movq	32(%rsp), %rdx
	addq	$168, %rsp
	.cfi_def_cfa_offset 8
	retq
.LBB171_8:
	.cfi_def_cfa_offset 176
	callq	_ZN73_$LT$core..result..Result$LT$T$C$E$GT$$u20$as$u20$core..ops..try..Try$GT$10from_error17hde99a1acc01bd63bE
	movq	%rdx, 32(%rsp)
	movq	%rax, 24(%rsp)
	jmp	.LBB171_7
.LBB171_10:
	movq	8(%rsp), %rax
	movq	%rax, 24(%rsp)
	movq	(%rsp), %rcx
	movq	%rcx, 32(%rsp)
	jmp	.LBB171_7
.Lfunc_end171:
	.size	_ZN4core5alloc6layout6Layout5array17h7d75cb2b5c1c10d0E, .Lfunc_end171-_ZN4core5alloc6layout6Layout5array17h7d75cb2b5c1c10d0E
	.cfi_endproc

	.section	.text._ZN4core5alloc6layout6Layout6repeat17h8bc8f1b6d56a5e8aE,"ax",@progbits
	.p2align	4, 0x90
	.type	_ZN4core5alloc6layout6Layout6repeat17h8bc8f1b6d56a5e8aE,@function
_ZN4core5alloc6layout6Layout6repeat17h8bc8f1b6d56a5e8aE:
	.cfi_startproc
	subq	$168, %rsp
	.cfi_def_cfa_offset 176
	movq	%rdi, %rax
	movq	%rdi, 120(%rsp)
	movq	%rsi, %rdi
	movq	%rdx, 112(%rsp)
	movq	%rsi, 104(%rsp)
	movq	%rax, 96(%rsp)
	callq	_ZN4core5alloc6layout6Layout4size17hb929b93d984b458aE
	movq	%rax, 88(%rsp)
	movq	104(%rsp), %rdi
	callq	_ZN4core5alloc6layout6Layout5align17h66176d46be05d28eE
	movq	%rax, 80(%rsp)
	movq	104(%rsp), %rdi
	movq	80(%rsp), %rsi
	callq	_ZN4core5alloc6layout6Layout18padding_needed_for17hbee5dd819273abf2E
	movq	%rax, 72(%rsp)
	movq	88(%rsp), %rax
	movq	72(%rsp), %rcx
	addq	%rcx, %rax
	movq	%rax, %rdi
	movq	112(%rsp), %rsi
	movq	%rax, 64(%rsp)
	callq	_ZN4core3num23_$LT$impl$u20$usize$GT$11checked_mul17he6ced54c7731b6cfE
	movq	%rax, 56(%rsp)
	movq	%rdx, 48(%rsp)
	movq	56(%rsp), %rdi
	movq	48(%rsp), %rsi
	callq	_ZN4core6option15Option$LT$T$GT$5ok_or17he1171047d4b897c8E
	movq	%rax, 40(%rsp)
	movq	%rdx, 32(%rsp)
	movq	40(%rsp), %rdi
	movq	32(%rsp), %rsi
	callq	_ZN73_$LT$core..result..Result$LT$T$C$E$GT$$u20$as$u20$core..ops..try..Try$GT$11into_result17h2f78c7a6361f98adE
	movq	%rdx, 136(%rsp)
	movq	%rax, 128(%rsp)
	movq	128(%rsp), %rax
	testq	%rax, %rax
	je	.LBB172_7
	jmp	.LBB172_15
.LBB172_15:
	jmp	.LBB172_9
.LBB172_7:
	movq	136(%rsp), %rdi
	movq	104(%rsp), %rax
	movq	%rdi, 24(%rsp)
	movq	%rax, %rdi
	callq	_ZN4core5alloc6layout6Layout5align17h66176d46be05d28eE
	movq	%rax, 16(%rsp)
	jmp	.LBB172_13
	.cfi_def_cfa_offset 8
	ud2
.LBB172_9:
	.cfi_def_cfa_offset 176
	callq	_ZN50_$LT$T$u20$as$u20$core..convert..From$LT$T$GT$$GT$4from17h75d2b286c8ffbbabE
	jmp	.LBB172_11
.LBB172_10:
	movq	96(%rsp), %rax
	addq	$168, %rsp
	.cfi_def_cfa_offset 8
	retq
.LBB172_11:
	.cfi_def_cfa_offset 176
	movq	120(%rsp), %rdi
	callq	_ZN73_$LT$core..result..Result$LT$T$C$E$GT$$u20$as$u20$core..ops..try..Try$GT$10from_error17h6b610ef9c67d85d8E
	jmp	.LBB172_10
.LBB172_13:
	movq	24(%rsp), %rdi
	movq	16(%rsp), %rsi
	callq	_ZN4core5alloc6layout6Layout25from_size_align_unchecked17ha33e1ad4e9db39f5E
	movq	%rax, 8(%rsp)
	movq	%rdx, (%rsp)
	movq	8(%rsp), %rax
	movq	%rax, 144(%rsp)
	movq	(%rsp), %rcx
	movq	%rcx, 152(%rsp)
	movq	64(%rsp), %rdx
	movq	%rdx, 160(%rsp)
	movq	144(%rsp), %rsi
	movq	120(%rsp), %rdi
	movq	%rsi, (%rdi)
	movq	152(%rsp), %rsi
	movq	%rsi, 8(%rdi)
	movq	160(%rsp), %rsi
	movq	%rsi, 16(%rdi)
	jmp	.LBB172_10
.Lfunc_end172:
	.size	_ZN4core5alloc6layout6Layout6repeat17h8bc8f1b6d56a5e8aE, .Lfunc_end172-_ZN4core5alloc6layout6Layout6repeat17h8bc8f1b6d56a5e8aE
	.cfi_endproc

	.section	.text._ZN4core5alloc6layout6Layout8dangling17h20eaa89ac23909d0E,"ax",@progbits
	.p2align	4, 0x90
	.type	_ZN4core5alloc6layout6Layout8dangling17h20eaa89ac23909d0E,@function
_ZN4core5alloc6layout6Layout8dangling17h20eaa89ac23909d0E:
	.cfi_startproc
	subq	$24, %rsp
	.cfi_def_cfa_offset 32
	callq	_ZN4core5alloc6layout6Layout5align17h66176d46be05d28eE
	movq	%rax, 16(%rsp)
	movq	16(%rsp), %rdi
	callq	_ZN4core3ptr8non_null16NonNull$LT$T$GT$13new_unchecked17h6d29cf6a4c6340c5E
	movq	%rax, 8(%rsp)
	movq	8(%rsp), %rax
	addq	$24, %rsp
	.cfi_def_cfa_offset 8
	retq
.Lfunc_end173:
	.size	_ZN4core5alloc6layout6Layout8dangling17h20eaa89ac23909d0E, .Lfunc_end173-_ZN4core5alloc6layout6Layout8dangling17h20eaa89ac23909d0E
	.cfi_endproc

	.section	.text._ZN4core5alloc9AllocInit11init_offset17hd25c0b8494c47853E,"ax",@progbits
	.p2align	4, 0x90
	.type	_ZN4core5alloc9AllocInit11init_offset17hd25c0b8494c47853E,@function
_ZN4core5alloc9AllocInit11init_offset17hd25c0b8494c47853E:
	.cfi_startproc
	subq	$56, %rsp
	.cfi_def_cfa_offset 64
	andb	$1, %dil
	movb	%dil, 47(%rsp)
	movzbl	47(%rsp), %eax
	movl	%eax, %r8d
	testb	$1, %r8b
	movq	%rcx, 32(%rsp)
	movq	%rdx, 24(%rsp)
	movq	%rsi, 16(%rsp)
	je	.LBB174_6
	jmp	.LBB174_7
.LBB174_7:
	movq	16(%rsp), %rdi
	callq	_ZN4core3ptr8non_null16NonNull$LT$T$GT$6as_ptr17h1c63eb2bdb3c1857E
	movq	%rax, 8(%rsp)
	jmp	.LBB174_3
	.cfi_def_cfa_offset 8
	ud2
.LBB174_3:
	.cfi_def_cfa_offset 64
	movq	8(%rsp), %rdi
	movq	32(%rsp), %rsi
	callq	_ZN4core3ptr7mut_ptr31_$LT$impl$u20$$BP$mut$u20$T$GT$3add17h609c07695c86fdb1E
	movq	%rax, (%rsp)
	xorl	%esi, %esi
	movq	24(%rsp), %rax
	movq	32(%rsp), %rcx
	subq	%rcx, %rax
	movq	(%rsp), %rdi
	movq	%rax, %rdx
	callq	_ZN4core3ptr7mut_ptr31_$LT$impl$u20$$BP$mut$u20$T$GT$11write_bytes17h265cfeb7cde99e89E
	jmp	.LBB174_6
.LBB174_6:
	addq	$56, %rsp
	.cfi_def_cfa_offset 8
	retq
.Lfunc_end174:
	.size	_ZN4core5alloc9AllocInit11init_offset17hd25c0b8494c47853E, .Lfunc_end174-_ZN4core5alloc9AllocInit11init_offset17hd25c0b8494c47853E
	.cfi_endproc

	.section	".text._ZN4core5clone5impls54_$LT$impl$u20$core..clone..Clone$u20$for$u20$usize$GT$5clone17hcb6747d86c6d7bc2E","ax",@progbits
	.p2align	4, 0x90
	.type	_ZN4core5clone5impls54_$LT$impl$u20$core..clone..Clone$u20$for$u20$usize$GT$5clone17hcb6747d86c6d7bc2E,@function
_ZN4core5clone5impls54_$LT$impl$u20$core..clone..Clone$u20$for$u20$usize$GT$5clone17hcb6747d86c6d7bc2E:
	.cfi_startproc
	movq	(%rdi), %rax
	retq
.Lfunc_end175:
	.size	_ZN4core5clone5impls54_$LT$impl$u20$core..clone..Clone$u20$for$u20$usize$GT$5clone17hcb6747d86c6d7bc2E, .Lfunc_end175-_ZN4core5clone5impls54_$LT$impl$u20$core..clone..Clone$u20$for$u20$usize$GT$5clone17hcb6747d86c6d7bc2E
	.cfi_endproc

	.section	".text._ZN4core5slice13Iter$LT$T$GT$8as_slice17h037ee93fba48b96eE","ax",@progbits
	.p2align	4, 0x90
	.type	_ZN4core5slice13Iter$LT$T$GT$8as_slice17h037ee93fba48b96eE,@function
_ZN4core5slice13Iter$LT$T$GT$8as_slice17h037ee93fba48b96eE:
	.cfi_startproc
	subq	$88, %rsp
	.cfi_def_cfa_offset 96
	movq	(%rdi), %rax
	movq	%rdi, 56(%rsp)
	movq	%rax, %rdi
	callq	_ZN4core3ptr8non_null16NonNull$LT$T$GT$6as_ptr17h1c63eb2bdb3c1857E
	movq	56(%rsp), %rcx
	movq	(%rcx), %rdx
	movq	%rdx, %rdi
	movq	%rax, 48(%rsp)
	movq	%rdx, 40(%rsp)
	callq	_ZN4core3ptr8non_null16NonNull$LT$T$GT$6as_ptr17h1c63eb2bdb3c1857E
	movq	$1, 80(%rsp)
	movq	80(%rsp), %rcx
	cmpq	$0, %rcx
	movq	%rcx, 32(%rsp)
	je	.LBB176_2
	movq	56(%rsp), %rax
	movq	8(%rax), %rcx
	movq	40(%rsp), %rdi
	movq	%rcx, 24(%rsp)
	callq	_ZN4core3ptr8non_null16NonNull$LT$T$GT$6as_ptr17h1c63eb2bdb3c1857E
	movq	24(%rsp), %rcx
	subq	%rax, %rcx
	movq	%rcx, 72(%rsp)
	movq	72(%rsp), %rax
	xorl	%edx, %edx
	movq	32(%rsp), %rcx
	divq	%rcx
	movq	%rax, 64(%rsp)
	jmp	.LBB176_3
.LBB176_2:
	movq	56(%rsp), %rax
	movq	8(%rax), %rdi
	movq	40(%rsp), %rcx
	movq	%rdi, 16(%rsp)
	movq	%rcx, %rdi
	callq	_ZN4core3ptr8non_null16NonNull$LT$T$GT$6as_ptr17h1c63eb2bdb3c1857E
	movq	16(%rsp), %rdi
	movq	%rax, %rsi
	callq	_ZN4core3num23_$LT$impl$u20$usize$GT$12wrapping_sub17h86c24ee04f06f4f6E
	movq	%rax, 64(%rsp)
.LBB176_3:
	movq	64(%rsp), %rsi
	movq	48(%rsp), %rdi
	callq	_ZN4core5slice14from_raw_parts17h1df459c032895ae6E
	movq	%rax, 8(%rsp)
	movq	%rdx, (%rsp)
	movq	8(%rsp), %rax
	movq	(%rsp), %rdx
	addq	$88, %rsp
	.cfi_def_cfa_offset 8
	retq
.Lfunc_end176:
	.size	_ZN4core5slice13Iter$LT$T$GT$8as_slice17h037ee93fba48b96eE, .Lfunc_end176-_ZN4core5slice13Iter$LT$T$GT$8as_slice17h037ee93fba48b96eE
	.cfi_endproc

	.section	.text._ZN4core5slice14from_raw_parts17h1df459c032895ae6E,"ax",@progbits
	.p2align	4, 0x90
	.type	_ZN4core5slice14from_raw_parts17h1df459c032895ae6E,@function
_ZN4core5slice14from_raw_parts17h1df459c032895ae6E:
	.cfi_startproc
	subq	$24, %rsp
	.cfi_def_cfa_offset 32
	callq	_ZN4core3ptr20slice_from_raw_parts17h76faa1effcd5638bE
	movq	%rax, 16(%rsp)
	movq	%rdx, 8(%rsp)
	movq	16(%rsp), %rax
	movq	8(%rsp), %rdx
	addq	$24, %rsp
	.cfi_def_cfa_offset 8
	retq
.Lfunc_end177:
	.size	_ZN4core5slice14from_raw_parts17h1df459c032895ae6E, .Lfunc_end177-_ZN4core5slice14from_raw_parts17h1df459c032895ae6E
	.cfi_endproc

	.section	.text._ZN4core5slice14from_raw_parts17h2a7419c437d6351eE,"ax",@progbits
	.p2align	4, 0x90
	.type	_ZN4core5slice14from_raw_parts17h2a7419c437d6351eE,@function
_ZN4core5slice14from_raw_parts17h2a7419c437d6351eE:
	.cfi_startproc
	subq	$24, %rsp
	.cfi_def_cfa_offset 32
	callq	_ZN4core3ptr20slice_from_raw_parts17hde5ab7b97d141d2dE
	movq	%rax, 16(%rsp)
	movq	%rdx, 8(%rsp)
	movq	16(%rsp), %rax
	movq	8(%rsp), %rdx
	addq	$24, %rsp
	.cfi_def_cfa_offset 8
	retq
.Lfunc_end178:
	.size	_ZN4core5slice14from_raw_parts17h2a7419c437d6351eE, .Lfunc_end178-_ZN4core5slice14from_raw_parts17h2a7419c437d6351eE
	.cfi_endproc

	.section	.text._ZN4core5slice18from_raw_parts_mut17he6049aa48e4fca34E,"ax",@progbits
	.p2align	4, 0x90
	.type	_ZN4core5slice18from_raw_parts_mut17he6049aa48e4fca34E,@function
_ZN4core5slice18from_raw_parts_mut17he6049aa48e4fca34E:
	.cfi_startproc
	subq	$24, %rsp
	.cfi_def_cfa_offset 32
	callq	_ZN4core3ptr24slice_from_raw_parts_mut17h435553a579a83164E
	movq	%rax, 16(%rsp)
	movq	%rdx, 8(%rsp)
	movq	16(%rsp), %rax
	movq	8(%rsp), %rdx
	addq	$24, %rsp
	.cfi_def_cfa_offset 8
	retq
.Lfunc_end179:
	.size	_ZN4core5slice18from_raw_parts_mut17he6049aa48e4fca34E, .Lfunc_end179-_ZN4core5slice18from_raw_parts_mut17he6049aa48e4fca34E
	.cfi_endproc

	.section	".text._ZN4core5slice29_$LT$impl$u20$$u5b$T$u5d$$GT$10as_mut_ptr17h234f26ded32da5deE","ax",@progbits
	.p2align	4, 0x90
	.type	_ZN4core5slice29_$LT$impl$u20$$u5b$T$u5d$$GT$10as_mut_ptr17h234f26ded32da5deE,@function
_ZN4core5slice29_$LT$impl$u20$$u5b$T$u5d$$GT$10as_mut_ptr17h234f26ded32da5deE:
	.cfi_startproc
	movq	%rdi, %rax
	retq
.Lfunc_end180:
	.size	_ZN4core5slice29_$LT$impl$u20$$u5b$T$u5d$$GT$10as_mut_ptr17h234f26ded32da5deE, .Lfunc_end180-_ZN4core5slice29_$LT$impl$u20$$u5b$T$u5d$$GT$10as_mut_ptr17h234f26ded32da5deE
	.cfi_endproc

	.section	".text._ZN4core5slice29_$LT$impl$u20$$u5b$T$u5d$$GT$15copy_from_slice17h55c3ae9f3ee90c3bE","ax",@progbits
	.p2align	4, 0x90
	.type	_ZN4core5slice29_$LT$impl$u20$$u5b$T$u5d$$GT$15copy_from_slice17h55c3ae9f3ee90c3bE,@function
_ZN4core5slice29_$LT$impl$u20$$u5b$T$u5d$$GT$15copy_from_slice17h55c3ae9f3ee90c3bE:
	.cfi_startproc
	subq	$376, %rsp
	.cfi_def_cfa_offset 384
	movq	%rdi, 152(%rsp)
	movq	%rsi, 144(%rsp)
	movq	%rdx, 136(%rsp)
	movq	%rcx, 128(%rsp)
	callq	_ZN4core5slice29_$LT$impl$u20$$u5b$T$u5d$$GT$3len17h8863da59ab28e3d6E
	movq	%rax, 176(%rsp)
	movq	136(%rsp), %rdi
	movq	128(%rsp), %rsi
	callq	_ZN4core5slice29_$LT$impl$u20$$u5b$T$u5d$$GT$3len17h8863da59ab28e3d6E
	movq	%rax, 184(%rsp)
	leaq	176(%rsp), %rax
	movq	%rax, 160(%rsp)
	leaq	184(%rsp), %rax
	movq	%rax, 168(%rsp)
	movq	160(%rsp), %rax
	movq	168(%rsp), %rcx
	movq	(%rax), %rdx
	cmpq	(%rcx), %rdx
	sete	%sil
	xorb	$-1, %sil
	testb	$1, %sil
	movq	%rax, 120(%rsp)
	movq	%rcx, 112(%rsp)
	jne	.LBB181_4
	movq	136(%rsp), %rdi
	movq	128(%rsp), %rsi
	callq	_ZN4core5slice29_$LT$impl$u20$$u5b$T$u5d$$GT$6as_ptr17h848110c5d4dd33efE
	movq	%rax, 104(%rsp)
	jmp	.LBB181_10
.LBB181_4:
	xorl	%eax, %eax
	movl	%eax, %r8d
	movq	.L__unnamed_6(%rip), %rcx
	movq	120(%rsp), %rdx
	movq	%rdx, 312(%rsp)
	movq	112(%rsp), %rsi
	movq	%rsi, 320(%rsp)
	movq	.L__unnamed_7(%rip), %rdi
	movq	.L__unnamed_8(%rip), %r9
	leaq	328(%rsp), %r10
	movq	%rdi, 96(%rsp)
	movq	%r10, %rdi
	movq	96(%rsp), %rsi
	movl	$1, %edx
	movq	%rcx, 88(%rsp)
	movq	%r9, %rcx
	callq	_ZN4core3fmt9Arguments6new_v117h293a5dc5f81480fbE
	leaq	312(%rsp), %rax
	movq	%rax, 288(%rsp)
	leaq	320(%rsp), %rax
	movq	%rax, 296(%rsp)
	leaq	328(%rsp), %rax
	movq	%rax, 304(%rsp)
	movq	288(%rsp), %rdi
	movq	296(%rsp), %rax
	movq	304(%rsp), %rcx
	leaq	_ZN42_$LT$$RF$T$u20$as$u20$core..fmt..Debug$GT$3fmt17h3a73068f9cdefca5E(%rip), %rsi
	movq	%rax, 80(%rsp)
	movq	%rcx, 72(%rsp)
	callq	_ZN4core3fmt10ArgumentV13new17h855fd7f9c37ef202E
	movq	%rax, 64(%rsp)
	movq	%rdx, 56(%rsp)
	movq	80(%rsp), %rdi
	leaq	_ZN42_$LT$$RF$T$u20$as$u20$core..fmt..Debug$GT$3fmt17h3a73068f9cdefca5E(%rip), %rsi
	callq	_ZN4core3fmt10ArgumentV13new17h855fd7f9c37ef202E
	movq	%rax, 48(%rsp)
	movq	%rdx, 40(%rsp)
	movq	_ZN59_$LT$core..fmt..Arguments$u20$as$u20$core..fmt..Display$GT$3fmt17hcc89c7ba5a24a9bfE@GOTPCREL(%rip), %rsi
	movq	72(%rsp), %rdi
	callq	_ZN4core3fmt10ArgumentV13new17h0b3903c09ee5c37dE
	movq	%rax, 32(%rsp)
	movq	%rdx, 24(%rsp)
	movq	64(%rsp), %rax
	movq	%rax, 240(%rsp)
	movq	56(%rsp), %rcx
	movq	%rcx, 248(%rsp)
	movq	48(%rsp), %rdx
	movq	%rdx, 256(%rsp)
	movq	40(%rsp), %rsi
	movq	%rsi, 264(%rsp)
	movq	32(%rsp), %rdi
	movq	%rdi, 272(%rsp)
	movq	24(%rsp), %r8
	movq	%r8, 280(%rsp)
	leaq	240(%rsp), %r9
	leaq	192(%rsp), %rdi
	movq	88(%rsp), %rsi
	movl	$3, %r10d
	movq	%r10, %rdx
	movq	%r9, %rcx
	movq	%r10, %r8
	callq	_ZN4core3fmt9Arguments6new_v117h293a5dc5f81480fbE
	leaq	.L__unnamed_9(%rip), %rsi
	movq	_ZN4core9panicking9panic_fmt17hbddb7fe6f399b81aE@GOTPCREL(%rip), %rax
	leaq	192(%rsp), %rdi
	callq	*%rax
	ud2
.LBB181_10:
	movq	152(%rsp), %rdi
	movq	144(%rsp), %rsi
	callq	_ZN4core5slice29_$LT$impl$u20$$u5b$T$u5d$$GT$10as_mut_ptr17h234f26ded32da5deE
	movq	%rax, 16(%rsp)
	movq	152(%rsp), %rdi
	movq	144(%rsp), %rsi
	callq	_ZN4core5slice29_$LT$impl$u20$$u5b$T$u5d$$GT$3len17h8863da59ab28e3d6E
	movq	%rax, 8(%rsp)
	movq	104(%rsp), %rdi
	movq	16(%rsp), %rsi
	movq	8(%rsp), %rdx
	callq	_ZN4core10intrinsics19copy_nonoverlapping17h47c577baea7bd148E
	addq	$376, %rsp
	.cfi_def_cfa_offset 8
	retq
.Lfunc_end181:
	.size	_ZN4core5slice29_$LT$impl$u20$$u5b$T$u5d$$GT$15copy_from_slice17h55c3ae9f3ee90c3bE, .Lfunc_end181-_ZN4core5slice29_$LT$impl$u20$$u5b$T$u5d$$GT$15copy_from_slice17h55c3ae9f3ee90c3bE
	.cfi_endproc

	.section	".text._ZN4core5slice29_$LT$impl$u20$$u5b$T$u5d$$GT$3len17h248b721ed1f9e002E","ax",@progbits
	.p2align	4, 0x90
	.type	_ZN4core5slice29_$LT$impl$u20$$u5b$T$u5d$$GT$3len17h248b721ed1f9e002E,@function
_ZN4core5slice29_$LT$impl$u20$$u5b$T$u5d$$GT$3len17h248b721ed1f9e002E:
	.cfi_startproc
	subq	$16, %rsp
	.cfi_def_cfa_offset 24
	movq	%rdi, (%rsp)
	movq	%rsi, 8(%rsp)
	movq	8(%rsp), %rax
	addq	$16, %rsp
	.cfi_def_cfa_offset 8
	retq
.Lfunc_end182:
	.size	_ZN4core5slice29_$LT$impl$u20$$u5b$T$u5d$$GT$3len17h248b721ed1f9e002E, .Lfunc_end182-_ZN4core5slice29_$LT$impl$u20$$u5b$T$u5d$$GT$3len17h248b721ed1f9e002E
	.cfi_endproc

	.section	".text._ZN4core5slice29_$LT$impl$u20$$u5b$T$u5d$$GT$3len17h84183e7e6939f51eE","ax",@progbits
	.p2align	4, 0x90
	.type	_ZN4core5slice29_$LT$impl$u20$$u5b$T$u5d$$GT$3len17h84183e7e6939f51eE,@function
_ZN4core5slice29_$LT$impl$u20$$u5b$T$u5d$$GT$3len17h84183e7e6939f51eE:
	.cfi_startproc
	subq	$16, %rsp
	.cfi_def_cfa_offset 24
	movq	%rdi, (%rsp)
	movq	%rsi, 8(%rsp)
	movq	8(%rsp), %rax
	addq	$16, %rsp
	.cfi_def_cfa_offset 8
	retq
.Lfunc_end183:
	.size	_ZN4core5slice29_$LT$impl$u20$$u5b$T$u5d$$GT$3len17h84183e7e6939f51eE, .Lfunc_end183-_ZN4core5slice29_$LT$impl$u20$$u5b$T$u5d$$GT$3len17h84183e7e6939f51eE
	.cfi_endproc

	.section	".text._ZN4core5slice29_$LT$impl$u20$$u5b$T$u5d$$GT$3len17h8863da59ab28e3d6E","ax",@progbits
	.p2align	4, 0x90
	.type	_ZN4core5slice29_$LT$impl$u20$$u5b$T$u5d$$GT$3len17h8863da59ab28e3d6E,@function
_ZN4core5slice29_$LT$impl$u20$$u5b$T$u5d$$GT$3len17h8863da59ab28e3d6E:
	.cfi_startproc
	subq	$16, %rsp
	.cfi_def_cfa_offset 24
	movq	%rdi, (%rsp)
	movq	%rsi, 8(%rsp)
	movq	8(%rsp), %rax
	addq	$16, %rsp
	.cfi_def_cfa_offset 8
	retq
.Lfunc_end184:
	.size	_ZN4core5slice29_$LT$impl$u20$$u5b$T$u5d$$GT$3len17h8863da59ab28e3d6E, .Lfunc_end184-_ZN4core5slice29_$LT$impl$u20$$u5b$T$u5d$$GT$3len17h8863da59ab28e3d6E
	.cfi_endproc

	.section	".text._ZN4core5slice29_$LT$impl$u20$$u5b$T$u5d$$GT$4iter17h1d2530264f7a7632E","ax",@progbits
	.p2align	4, 0x90
	.type	_ZN4core5slice29_$LT$impl$u20$$u5b$T$u5d$$GT$4iter17h1d2530264f7a7632E,@function
_ZN4core5slice29_$LT$impl$u20$$u5b$T$u5d$$GT$4iter17h1d2530264f7a7632E:
	.cfi_startproc
	subq	$120, %rsp
	.cfi_def_cfa_offset 128
	movq	%rdi, 72(%rsp)
	movq	%rsi, 64(%rsp)
	callq	_ZN4core5slice29_$LT$impl$u20$$u5b$T$u5d$$GT$6as_ptr17hd440ad408ea43238E
	movq	%rax, 56(%rsp)
	movq	56(%rsp), %rdi
	callq	_ZN4core3ptr9const_ptr33_$LT$impl$u20$$BP$const$u20$T$GT$7is_null17h368afa4eb11a3718E
	movq	$8, 112(%rsp)
	movq	112(%rsp), %rax
	movq	%rax, 48(%rsp)
	movq	48(%rsp), %rax
	cmpq	$0, %rax
	je	.LBB185_6
	movq	72(%rsp), %rdi
	movq	64(%rsp), %rsi
	callq	_ZN4core5slice29_$LT$impl$u20$$u5b$T$u5d$$GT$3len17h84183e7e6939f51eE
	movq	%rax, 40(%rsp)
	jmp	.LBB185_9
.LBB185_6:
	movq	56(%rsp), %rax
	movq	72(%rsp), %rdi
	movq	64(%rsp), %rsi
	movq	%rax, 32(%rsp)
	callq	_ZN4core5slice29_$LT$impl$u20$$u5b$T$u5d$$GT$3len17h84183e7e6939f51eE
	movq	%rax, 24(%rsp)
	movq	32(%rsp), %rdi
	movq	24(%rsp), %rsi
	callq	_ZN4core3ptr9const_ptr33_$LT$impl$u20$$BP$const$u20$T$GT$12wrapping_add17he739d85282b2af82E
	movq	%rax, 16(%rsp)
	movq	16(%rsp), %rax
	movq	%rax, 96(%rsp)
	jmp	.LBB185_11
.LBB185_9:
	movq	56(%rsp), %rdi
	movq	40(%rsp), %rsi
	callq	_ZN4core3ptr9const_ptr33_$LT$impl$u20$$BP$const$u20$T$GT$3add17hce6a18fef093fa07E
	movq	%rax, 96(%rsp)
	jmp	.LBB185_11
.LBB185_11:
	movq	56(%rsp), %rdi
	callq	_ZN4core3ptr8non_null16NonNull$LT$T$GT$13new_unchecked17h79b7e622e39a0b60E
	movq	%rax, 8(%rsp)
	movq	96(%rsp), %rax
	movq	8(%rsp), %rcx
	movq	%rcx, 80(%rsp)
	movq	%rax, 88(%rsp)
	movq	80(%rsp), %rax
	movq	88(%rsp), %rdx
	addq	$120, %rsp
	.cfi_def_cfa_offset 8
	retq
.Lfunc_end185:
	.size	_ZN4core5slice29_$LT$impl$u20$$u5b$T$u5d$$GT$4iter17h1d2530264f7a7632E, .Lfunc_end185-_ZN4core5slice29_$LT$impl$u20$$u5b$T$u5d$$GT$4iter17h1d2530264f7a7632E
	.cfi_endproc

	.section	".text._ZN4core5slice29_$LT$impl$u20$$u5b$T$u5d$$GT$4iter17ha0219fcfb5ab00b4E","ax",@progbits
	.p2align	4, 0x90
	.type	_ZN4core5slice29_$LT$impl$u20$$u5b$T$u5d$$GT$4iter17ha0219fcfb5ab00b4E,@function
_ZN4core5slice29_$LT$impl$u20$$u5b$T$u5d$$GT$4iter17ha0219fcfb5ab00b4E:
	.cfi_startproc
	subq	$104, %rsp
	.cfi_def_cfa_offset 112
	movq	%rdi, 56(%rsp)
	movq	%rsi, 48(%rsp)
	callq	_ZN4core5slice29_$LT$impl$u20$$u5b$T$u5d$$GT$6as_ptr17h848110c5d4dd33efE
	movq	%rax, 40(%rsp)
	movq	40(%rsp), %rdi
	callq	_ZN4core3ptr9const_ptr33_$LT$impl$u20$$BP$const$u20$T$GT$7is_null17h97e47aa489cd3c47E
	movq	$1, 96(%rsp)
	movq	96(%rsp), %rax
	movq	%rax, 32(%rsp)
	movq	32(%rsp), %rax
	cmpq	$0, %rax
	je	.LBB186_6
	movq	56(%rsp), %rdi
	movq	48(%rsp), %rsi
	callq	_ZN4core5slice29_$LT$impl$u20$$u5b$T$u5d$$GT$3len17h8863da59ab28e3d6E
	movq	%rax, 24(%rsp)
	jmp	.LBB186_9
.LBB186_6:
	movq	56(%rsp), %rdi
	movq	48(%rsp), %rsi
	callq	_ZN4core5slice29_$LT$impl$u20$$u5b$T$u5d$$GT$3len17h8863da59ab28e3d6E
	movq	%rax, 16(%rsp)
	movq	40(%rsp), %rdi
	movq	16(%rsp), %rsi
	callq	_ZN4core3ptr9const_ptr33_$LT$impl$u20$$BP$const$u20$T$GT$12wrapping_add17he739d85282b2af82E
	movq	%rax, 8(%rsp)
	movq	8(%rsp), %rax
	movq	%rax, 80(%rsp)
	jmp	.LBB186_11
.LBB186_9:
	movq	40(%rsp), %rdi
	movq	24(%rsp), %rsi
	callq	_ZN4core3ptr9const_ptr33_$LT$impl$u20$$BP$const$u20$T$GT$3add17h24b092a2dffb7870E
	movq	%rax, 80(%rsp)
	jmp	.LBB186_11
.LBB186_11:
	movq	40(%rsp), %rdi
	callq	_ZN4core3ptr8non_null16NonNull$LT$T$GT$13new_unchecked17h6d29cf6a4c6340c5E
	movq	%rax, (%rsp)
	movq	80(%rsp), %rax
	movq	(%rsp), %rcx
	movq	%rcx, 64(%rsp)
	movq	%rax, 72(%rsp)
	movq	64(%rsp), %rax
	movq	72(%rsp), %rdx
	addq	$104, %rsp
	.cfi_def_cfa_offset 8
	retq
.Lfunc_end186:
	.size	_ZN4core5slice29_$LT$impl$u20$$u5b$T$u5d$$GT$4iter17ha0219fcfb5ab00b4E, .Lfunc_end186-_ZN4core5slice29_$LT$impl$u20$$u5b$T$u5d$$GT$4iter17ha0219fcfb5ab00b4E
	.cfi_endproc

	.section	".text._ZN4core5slice29_$LT$impl$u20$$u5b$T$u5d$$GT$4iter17hbe1f17dbc849c73eE","ax",@progbits
	.p2align	4, 0x90
	.type	_ZN4core5slice29_$LT$impl$u20$$u5b$T$u5d$$GT$4iter17hbe1f17dbc849c73eE,@function
_ZN4core5slice29_$LT$impl$u20$$u5b$T$u5d$$GT$4iter17hbe1f17dbc849c73eE:
	.cfi_startproc
	subq	$120, %rsp
	.cfi_def_cfa_offset 128
	movq	%rdi, 72(%rsp)
	movq	%rsi, 64(%rsp)
	callq	_ZN4core5slice29_$LT$impl$u20$$u5b$T$u5d$$GT$6as_ptr17hc0f0e15f0f51ba9bE
	movq	%rax, 56(%rsp)
	movq	56(%rsp), %rdi
	callq	_ZN4core3ptr9const_ptr33_$LT$impl$u20$$BP$const$u20$T$GT$7is_null17h139265ba00b23098E
	movq	$4, 112(%rsp)
	movq	112(%rsp), %rax
	movq	%rax, 48(%rsp)
	movq	48(%rsp), %rax
	cmpq	$0, %rax
	je	.LBB187_6
	movq	72(%rsp), %rdi
	movq	64(%rsp), %rsi
	callq	_ZN4core5slice29_$LT$impl$u20$$u5b$T$u5d$$GT$3len17h248b721ed1f9e002E
	movq	%rax, 40(%rsp)
	jmp	.LBB187_9
.LBB187_6:
	movq	56(%rsp), %rax
	movq	72(%rsp), %rdi
	movq	64(%rsp), %rsi
	movq	%rax, 32(%rsp)
	callq	_ZN4core5slice29_$LT$impl$u20$$u5b$T$u5d$$GT$3len17h248b721ed1f9e002E
	movq	%rax, 24(%rsp)
	movq	32(%rsp), %rdi
	movq	24(%rsp), %rsi
	callq	_ZN4core3ptr9const_ptr33_$LT$impl$u20$$BP$const$u20$T$GT$12wrapping_add17he739d85282b2af82E
	movq	%rax, 16(%rsp)
	movq	16(%rsp), %rax
	movq	%rax, 96(%rsp)
	jmp	.LBB187_11
.LBB187_9:
	movq	56(%rsp), %rdi
	movq	40(%rsp), %rsi
	callq	_ZN4core3ptr9const_ptr33_$LT$impl$u20$$BP$const$u20$T$GT$3add17h707747effa592b1aE
	movq	%rax, 96(%rsp)
	jmp	.LBB187_11
.LBB187_11:
	movq	56(%rsp), %rdi
	callq	_ZN4core3ptr8non_null16NonNull$LT$T$GT$13new_unchecked17h0f7925db946c7083E
	movq	%rax, 8(%rsp)
	movq	96(%rsp), %rax
	movq	8(%rsp), %rcx
	movq	%rcx, 80(%rsp)
	movq	%rax, 88(%rsp)
	movq	80(%rsp), %rax
	movq	88(%rsp), %rdx
	addq	$120, %rsp
	.cfi_def_cfa_offset 8
	retq
.Lfunc_end187:
	.size	_ZN4core5slice29_$LT$impl$u20$$u5b$T$u5d$$GT$4iter17hbe1f17dbc849c73eE, .Lfunc_end187-_ZN4core5slice29_$LT$impl$u20$$u5b$T$u5d$$GT$4iter17hbe1f17dbc849c73eE
	.cfi_endproc

	.section	".text._ZN4core5slice29_$LT$impl$u20$$u5b$T$u5d$$GT$6as_ptr17h848110c5d4dd33efE","ax",@progbits
	.p2align	4, 0x90
	.type	_ZN4core5slice29_$LT$impl$u20$$u5b$T$u5d$$GT$6as_ptr17h848110c5d4dd33efE,@function
_ZN4core5slice29_$LT$impl$u20$$u5b$T$u5d$$GT$6as_ptr17h848110c5d4dd33efE:
	.cfi_startproc
	movq	%rdi, %rax
	retq
.Lfunc_end188:
	.size	_ZN4core5slice29_$LT$impl$u20$$u5b$T$u5d$$GT$6as_ptr17h848110c5d4dd33efE, .Lfunc_end188-_ZN4core5slice29_$LT$impl$u20$$u5b$T$u5d$$GT$6as_ptr17h848110c5d4dd33efE
	.cfi_endproc

	.section	".text._ZN4core5slice29_$LT$impl$u20$$u5b$T$u5d$$GT$6as_ptr17hc0f0e15f0f51ba9bE","ax",@progbits
	.p2align	4, 0x90
	.type	_ZN4core5slice29_$LT$impl$u20$$u5b$T$u5d$$GT$6as_ptr17hc0f0e15f0f51ba9bE,@function
_ZN4core5slice29_$LT$impl$u20$$u5b$T$u5d$$GT$6as_ptr17hc0f0e15f0f51ba9bE:
	.cfi_startproc
	movq	%rdi, %rax
	retq
.Lfunc_end189:
	.size	_ZN4core5slice29_$LT$impl$u20$$u5b$T$u5d$$GT$6as_ptr17hc0f0e15f0f51ba9bE, .Lfunc_end189-_ZN4core5slice29_$LT$impl$u20$$u5b$T$u5d$$GT$6as_ptr17hc0f0e15f0f51ba9bE
	.cfi_endproc

	.section	".text._ZN4core5slice29_$LT$impl$u20$$u5b$T$u5d$$GT$6as_ptr17hd440ad408ea43238E","ax",@progbits
	.p2align	4, 0x90
	.type	_ZN4core5slice29_$LT$impl$u20$$u5b$T$u5d$$GT$6as_ptr17hd440ad408ea43238E,@function
_ZN4core5slice29_$LT$impl$u20$$u5b$T$u5d$$GT$6as_ptr17hd440ad408ea43238E:
	.cfi_startproc
	movq	%rdi, %rax
	retq
.Lfunc_end190:
	.size	_ZN4core5slice29_$LT$impl$u20$$u5b$T$u5d$$GT$6as_ptr17hd440ad408ea43238E, .Lfunc_end190-_ZN4core5slice29_$LT$impl$u20$$u5b$T$u5d$$GT$6as_ptr17hd440ad408ea43238E
	.cfi_endproc

	.section	".text._ZN4core5slice74_$LT$impl$u20$core..ops..index..Index$LT$I$GT$$u20$for$u20$$u5b$T$u5d$$GT$5index17h7c0d959599b9aad7E","ax",@progbits
	.p2align	4, 0x90
	.type	_ZN4core5slice74_$LT$impl$u20$core..ops..index..Index$LT$I$GT$$u20$for$u20$$u5b$T$u5d$$GT$5index17h7c0d959599b9aad7E,@function
_ZN4core5slice74_$LT$impl$u20$core..ops..index..Index$LT$I$GT$$u20$for$u20$$u5b$T$u5d$$GT$5index17h7c0d959599b9aad7E:
	.cfi_startproc
	subq	$40, %rsp
	.cfi_def_cfa_offset 48
	movq	%rdi, 32(%rsp)
	movq	%rdx, %rdi
	movq	%rsi, 24(%rsp)
	movq	%rcx, %rsi
	movq	32(%rsp), %rdx
	movq	24(%rsp), %rcx
	callq	_ZN99_$LT$core..ops..range..Range$LT$usize$GT$$u20$as$u20$core..slice..SliceIndex$LT$$u5b$T$u5d$$GT$$GT$5index17hd2647acf02b84258E
	movq	%rax, 16(%rsp)
	movq	%rdx, 8(%rsp)
	movq	16(%rsp), %rax
	movq	8(%rsp), %rdx
	addq	$40, %rsp
	.cfi_def_cfa_offset 8
	retq
.Lfunc_end191:
	.size	_ZN4core5slice74_$LT$impl$u20$core..ops..index..Index$LT$I$GT$$u20$for$u20$$u5b$T$u5d$$GT$5index17h7c0d959599b9aad7E, .Lfunc_end191-_ZN4core5slice74_$LT$impl$u20$core..ops..index..Index$LT$I$GT$$u20$for$u20$$u5b$T$u5d$$GT$5index17h7c0d959599b9aad7E
	.cfi_endproc

	.section	".text._ZN4core5slice74_$LT$impl$u20$core..ops..index..Index$LT$I$GT$$u20$for$u20$$u5b$T$u5d$$GT$5index17ha403f2e617f9feacE","ax",@progbits
	.p2align	4, 0x90
	.type	_ZN4core5slice74_$LT$impl$u20$core..ops..index..Index$LT$I$GT$$u20$for$u20$$u5b$T$u5d$$GT$5index17ha403f2e617f9feacE,@function
_ZN4core5slice74_$LT$impl$u20$core..ops..index..Index$LT$I$GT$$u20$for$u20$$u5b$T$u5d$$GT$5index17ha403f2e617f9feacE:
	.cfi_startproc
	subq	$24, %rsp
	.cfi_def_cfa_offset 32
	callq	_ZN90_$LT$core..ops..range..RangeFull$u20$as$u20$core..slice..SliceIndex$LT$$u5b$T$u5d$$GT$$GT$5index17h23ea8e15a3cbb79bE
	movq	%rax, 16(%rsp)
	movq	%rdx, 8(%rsp)
	movq	16(%rsp), %rax
	movq	8(%rsp), %rdx
	addq	$24, %rsp
	.cfi_def_cfa_offset 8
	retq
.Lfunc_end192:
	.size	_ZN4core5slice74_$LT$impl$u20$core..ops..index..Index$LT$I$GT$$u20$for$u20$$u5b$T$u5d$$GT$5index17ha403f2e617f9feacE, .Lfunc_end192-_ZN4core5slice74_$LT$impl$u20$core..ops..index..Index$LT$I$GT$$u20$for$u20$$u5b$T$u5d$$GT$5index17ha403f2e617f9feacE
	.cfi_endproc

	.section	".text._ZN4core5slice81_$LT$impl$u20$core..cmp..PartialEq$LT$$u5b$B$u5d$$GT$$u20$for$u20$$u5b$A$u5d$$GT$2eq17h5ff0180d82b31b1fE","ax",@progbits
	.p2align	4, 0x90
	.type	_ZN4core5slice81_$LT$impl$u20$core..cmp..PartialEq$LT$$u5b$B$u5d$$GT$$u20$for$u20$$u5b$A$u5d$$GT$2eq17h5ff0180d82b31b1fE,@function
_ZN4core5slice81_$LT$impl$u20$core..cmp..PartialEq$LT$$u5b$B$u5d$$GT$$u20$for$u20$$u5b$A$u5d$$GT$2eq17h5ff0180d82b31b1fE:
	.cfi_startproc
	pushq	%rax
	.cfi_def_cfa_offset 16
	callq	_ZN68_$LT$$u5b$A$u5d$$u20$as$u20$core..slice..SlicePartialEq$LT$A$GT$$GT$5equal17h6823d3427c25e1c0E
	movb	%al, 7(%rsp)
	movb	7(%rsp), %al
	andb	$1, %al
	movzbl	%al, %eax
	popq	%rcx
	.cfi_def_cfa_offset 8
	retq
.Lfunc_end193:
	.size	_ZN4core5slice81_$LT$impl$u20$core..cmp..PartialEq$LT$$u5b$B$u5d$$GT$$u20$for$u20$$u5b$A$u5d$$GT$2eq17h5ff0180d82b31b1fE, .Lfunc_end193-_ZN4core5slice81_$LT$impl$u20$core..cmp..PartialEq$LT$$u5b$B$u5d$$GT$$u20$for$u20$$u5b$A$u5d$$GT$2eq17h5ff0180d82b31b1fE
	.cfi_endproc

	.section	".text._ZN4core5slice87_$LT$impl$u20$core..iter..traits..collect..IntoIterator$u20$for$u20$$RF$$u5b$T$u5d$$GT$9into_iter17h926d8807c7b250d8E","ax",@progbits
	.p2align	4, 0x90
	.type	_ZN4core5slice87_$LT$impl$u20$core..iter..traits..collect..IntoIterator$u20$for$u20$$RF$$u5b$T$u5d$$GT$9into_iter17h926d8807c7b250d8E,@function
_ZN4core5slice87_$LT$impl$u20$core..iter..traits..collect..IntoIterator$u20$for$u20$$RF$$u5b$T$u5d$$GT$9into_iter17h926d8807c7b250d8E:
	.cfi_startproc
	subq	$24, %rsp
	.cfi_def_cfa_offset 32
	callq	_ZN4core5slice29_$LT$impl$u20$$u5b$T$u5d$$GT$4iter17hbe1f17dbc849c73eE
	movq	%rax, 16(%rsp)
	movq	%rdx, 8(%rsp)
	movq	16(%rsp), %rax
	movq	8(%rsp), %rdx
	addq	$24, %rsp
	.cfi_def_cfa_offset 8
	retq
.Lfunc_end194:
	.size	_ZN4core5slice87_$LT$impl$u20$core..iter..traits..collect..IntoIterator$u20$for$u20$$RF$$u5b$T$u5d$$GT$9into_iter17h926d8807c7b250d8E, .Lfunc_end194-_ZN4core5slice87_$LT$impl$u20$core..iter..traits..collect..IntoIterator$u20$for$u20$$RF$$u5b$T$u5d$$GT$9into_iter17h926d8807c7b250d8E
	.cfi_endproc

	.section	".text._ZN4core6option15Option$LT$T$GT$3map17h9be4f2b11703f21bE","ax",@progbits
	.p2align	4, 0x90
	.type	_ZN4core6option15Option$LT$T$GT$3map17h9be4f2b11703f21bE,@function
_ZN4core6option15Option$LT$T$GT$3map17h9be4f2b11703f21bE:
.Lfunc_begin20:
	.cfi_startproc
	.cfi_personality 155, DW.ref.rust_eh_personality
	.cfi_lsda 27, .Lexception20
	subq	$72, %rsp
	.cfi_def_cfa_offset 80
	movq	%rdi, 24(%rsp)
	movb	$0, 55(%rsp)
	movb	$1, 55(%rsp)
	movq	24(%rsp), %rax
	testq	%rax, %rax
	setne	%cl
	movzbl	%cl, %edx
	movl	%edx, %eax
	movq	%rsi, 16(%rsp)
	je	.LBB195_1
	jmp	.LBB195_10
.LBB195_10:
	jmp	.LBB195_3
.LBB195_1:
	movl	$0, 32(%rsp)
	jmp	.LBB195_8
	.cfi_def_cfa_offset 8
	ud2
.LBB195_3:
	.cfi_def_cfa_offset 80
	movq	24(%rsp), %rax
	movb	$0, 55(%rsp)
	movq	%rax, 40(%rsp)
	movq	40(%rsp), %rsi
.Ltmp105:
	movq	16(%rsp), %rdi
	callq	_ZN4core3ops8function5impls80_$LT$impl$u20$core..ops..function..FnOnce$LT$A$GT$$u20$for$u20$$RF$mut$u20$F$GT$9call_once17h6b04ecbed733d732E
.Ltmp106:
	movl	%eax, 12(%rsp)
	jmp	.LBB195_4
.LBB195_4:
	movl	12(%rsp), %eax
	movl	%eax, 36(%rsp)
	movl	$1, 32(%rsp)
	jmp	.LBB195_8
.LBB195_5:
	movl	32(%rsp), %eax
	movl	36(%rsp), %edx
	addq	$72, %rsp
	.cfi_def_cfa_offset 8
	retq
.LBB195_6:
	.cfi_def_cfa_offset 80
	movq	56(%rsp), %rdi
	callq	_Unwind_Resume@PLT
	ud2
.LBB195_7:
	movb	$0, 55(%rsp)
	jmp	.LBB195_5
.LBB195_8:
	testb	$1, 55(%rsp)
	jne	.LBB195_7
	jmp	.LBB195_5
.LBB195_9:
.Ltmp107:
	movq	%rax, 56(%rsp)
	movl	%edx, 64(%rsp)
	jmp	.LBB195_6
.Lfunc_end195:
	.size	_ZN4core6option15Option$LT$T$GT$3map17h9be4f2b11703f21bE, .Lfunc_end195-_ZN4core6option15Option$LT$T$GT$3map17h9be4f2b11703f21bE
	.cfi_endproc
	.section	.gcc_except_table,"a",@progbits
	.p2align	2
GCC_except_table195:
.Lexception20:
	.byte	255
	.byte	255
	.byte	1
	.uleb128 .Lcst_end20-.Lcst_begin20
.Lcst_begin20:
	.uleb128 .Ltmp105-.Lfunc_begin20
	.uleb128 .Ltmp106-.Ltmp105
	.uleb128 .Ltmp107-.Lfunc_begin20
	.byte	0
	.uleb128 .Ltmp106-.Lfunc_begin20
	.uleb128 .Lfunc_end195-.Ltmp106
	.byte	0
	.byte	0
.Lcst_end20:
	.p2align	2

	.section	".text._ZN4core6option15Option$LT$T$GT$4take17h00fb8366c59aab4eE","ax",@progbits
	.p2align	4, 0x90
	.type	_ZN4core6option15Option$LT$T$GT$4take17h00fb8366c59aab4eE,@function
_ZN4core6option15Option$LT$T$GT$4take17h00fb8366c59aab4eE:
	.cfi_startproc
	subq	$24, %rsp
	.cfi_def_cfa_offset 32
	callq	_ZN4core3mem4take17h0177a3e70046a338E
	movq	%rax, 16(%rsp)
	movq	%rdx, 8(%rsp)
	movq	16(%rsp), %rax
	movq	8(%rsp), %rdx
	addq	$24, %rsp
	.cfi_def_cfa_offset 8
	retq
.Lfunc_end196:
	.size	_ZN4core6option15Option$LT$T$GT$4take17h00fb8366c59aab4eE, .Lfunc_end196-_ZN4core6option15Option$LT$T$GT$4take17h00fb8366c59aab4eE
	.cfi_endproc

	.section	".text._ZN4core6option15Option$LT$T$GT$5ok_or17h16a58184d9b11c42E","ax",@progbits
	.p2align	4, 0x90
	.type	_ZN4core6option15Option$LT$T$GT$5ok_or17h16a58184d9b11c42E,@function
_ZN4core6option15Option$LT$T$GT$5ok_or17h16a58184d9b11c42E:
	.cfi_startproc
	subq	$40, %rsp
	.cfi_def_cfa_offset 48
	movq	%rdi, (%rsp)
	movb	$0, 23(%rsp)
	movb	$1, 23(%rsp)
	movq	(%rsp), %rax
	testq	%rax, %rax
	setne	%cl
	movzbl	%cl, %edx
	movl	%edx, %eax
	je	.LBB197_1
	jmp	.LBB197_7
.LBB197_7:
	jmp	.LBB197_3
.LBB197_1:
	movb	$0, 23(%rsp)
	movq	$0, 8(%rsp)
	jmp	.LBB197_4
	.cfi_def_cfa_offset 8
	ud2
.LBB197_3:
	.cfi_def_cfa_offset 48
	movq	(%rsp), %rax
	movq	%rax, 8(%rsp)
.LBB197_4:
	testb	$1, 23(%rsp)
	jne	.LBB197_6
.LBB197_5:
	movq	8(%rsp), %rax
	addq	$40, %rsp
	.cfi_def_cfa_offset 8
	retq
.LBB197_6:
	.cfi_def_cfa_offset 48
	movb	$0, 23(%rsp)
	jmp	.LBB197_5
.Lfunc_end197:
	.size	_ZN4core6option15Option$LT$T$GT$5ok_or17h16a58184d9b11c42E, .Lfunc_end197-_ZN4core6option15Option$LT$T$GT$5ok_or17h16a58184d9b11c42E
	.cfi_endproc

	.section	".text._ZN4core6option15Option$LT$T$GT$5ok_or17h449a04807f594f74E","ax",@progbits
	.p2align	4, 0x90
	.type	_ZN4core6option15Option$LT$T$GT$5ok_or17h449a04807f594f74E,@function
_ZN4core6option15Option$LT$T$GT$5ok_or17h449a04807f594f74E:
	.cfi_startproc
	subq	$72, %rsp
	.cfi_def_cfa_offset 80
	movq	%rdi, %rax
	movq	%rsi, 32(%rsp)
	movq	%rdx, 40(%rsp)
	movb	$0, 55(%rsp)
	movb	$1, 55(%rsp)
	movq	32(%rsp), %rdx
	testq	%rdx, %rdx
	movq	%r8, 24(%rsp)
	movq	%rcx, 16(%rsp)
	movq	%rdi, 8(%rsp)
	movq	%rax, (%rsp)
	je	.LBB198_1
	jmp	.LBB198_7
.LBB198_7:
	jmp	.LBB198_3
.LBB198_1:
	movb	$0, 55(%rsp)
	movq	8(%rsp), %rax
	movq	16(%rsp), %rcx
	movq	%rcx, 8(%rax)
	movq	24(%rsp), %rdx
	movq	%rdx, 16(%rax)
	movq	$1, (%rax)
	jmp	.LBB198_4
	.cfi_def_cfa_offset 8
	ud2
.LBB198_3:
	.cfi_def_cfa_offset 80
	movq	40(%rsp), %rax
	movq	8(%rsp), %rcx
	movq	%rax, 8(%rcx)
	movq	$0, (%rcx)
.LBB198_4:
	testb	$1, 55(%rsp)
	jne	.LBB198_6
.LBB198_5:
	movq	(%rsp), %rax
	addq	$72, %rsp
	.cfi_def_cfa_offset 8
	retq
.LBB198_6:
	.cfi_def_cfa_offset 80
	movb	$0, 55(%rsp)
	jmp	.LBB198_5
.Lfunc_end198:
	.size	_ZN4core6option15Option$LT$T$GT$5ok_or17h449a04807f594f74E, .Lfunc_end198-_ZN4core6option15Option$LT$T$GT$5ok_or17h449a04807f594f74E
	.cfi_endproc

	.section	".text._ZN4core6option15Option$LT$T$GT$5ok_or17he1171047d4b897c8E","ax",@progbits
	.p2align	4, 0x90
	.type	_ZN4core6option15Option$LT$T$GT$5ok_or17he1171047d4b897c8E,@function
_ZN4core6option15Option$LT$T$GT$5ok_or17he1171047d4b897c8E:
	.cfi_startproc
	subq	$56, %rsp
	.cfi_def_cfa_offset 64
	movq	%rdi, (%rsp)
	movq	%rsi, 8(%rsp)
	movb	$0, 39(%rsp)
	movb	$1, 39(%rsp)
	movq	(%rsp), %rax
	testq	%rax, %rax
	je	.LBB199_1
	jmp	.LBB199_7
.LBB199_7:
	jmp	.LBB199_3
.LBB199_1:
	movb	$0, 39(%rsp)
	movq	$1, 16(%rsp)
	jmp	.LBB199_4
	.cfi_def_cfa_offset 8
	ud2
.LBB199_3:
	.cfi_def_cfa_offset 64
	movq	8(%rsp), %rax
	movq	%rax, 24(%rsp)
	movq	$0, 16(%rsp)
.LBB199_4:
	testb	$1, 39(%rsp)
	jne	.LBB199_6
.LBB199_5:
	movq	16(%rsp), %rax
	movq	24(%rsp), %rdx
	addq	$56, %rsp
	.cfi_def_cfa_offset 8
	retq
.LBB199_6:
	.cfi_def_cfa_offset 64
	movb	$0, 39(%rsp)
	jmp	.LBB199_5
.Lfunc_end199:
	.size	_ZN4core6option15Option$LT$T$GT$5ok_or17he1171047d4b897c8E, .Lfunc_end199-_ZN4core6option15Option$LT$T$GT$5ok_or17he1171047d4b897c8E
	.cfi_endproc

	.section	".text._ZN4core6result19Result$LT$T$C$E$GT$14unwrap_or_else17h0c34481ec6d1eff7E","ax",@progbits
	.p2align	4, 0x90
	.type	_ZN4core6result19Result$LT$T$C$E$GT$14unwrap_or_else17h0c34481ec6d1eff7E,@function
_ZN4core6result19Result$LT$T$C$E$GT$14unwrap_or_else17h0c34481ec6d1eff7E:
.Lfunc_begin21:
	.cfi_startproc
	.cfi_personality 155, DW.ref.rust_eh_personality
	.cfi_lsda 27, .Lexception21
	subq	$88, %rsp
	.cfi_def_cfa_offset 96
	movq	%rdi, 32(%rsp)
	movq	%rsi, 40(%rsp)
	movb	$0, 71(%rsp)
	movb	$1, 71(%rsp)
	movq	32(%rsp), %rax
	testq	%rax, %rax
	sete	%cl
	movzbl	%cl, %r8d
	movl	%r8d, %eax
	movq	%rdx, 24(%rsp)
	jne	.LBB200_3
	jmp	.LBB200_10
.LBB200_10:
	movb	$0, 71(%rsp)
.Ltmp108:
	movq	24(%rsp), %rdi
	callq	_ZN5alloc7raw_vec19RawVec$LT$T$C$A$GT$11allocate_in28_$u7b$$u7b$closure$u7d$$u7d$17h002a69f4738cdc6cE
.Ltmp109:
	movq	%rdx, 16(%rsp)
	movq	%rax, 8(%rsp)
	jmp	.LBB200_4
	.cfi_def_cfa_offset 8
	ud2
.LBB200_3:
	.cfi_def_cfa_offset 96
	movq	32(%rsp), %rax
	movq	40(%rsp), %rcx
	movq	%rax, 48(%rsp)
	movq	%rcx, 56(%rsp)
	jmp	.LBB200_5
.LBB200_4:
	movq	8(%rsp), %rax
	movq	%rax, 48(%rsp)
	movq	16(%rsp), %rcx
	movq	%rcx, 56(%rsp)
.LBB200_5:
	testb	$1, 71(%rsp)
	jne	.LBB200_8
.LBB200_6:
	movq	48(%rsp), %rax
	movq	56(%rsp), %rdx
	addq	$88, %rsp
	.cfi_def_cfa_offset 8
	retq
.LBB200_7:
	.cfi_def_cfa_offset 96
	movq	72(%rsp), %rdi
	callq	_Unwind_Resume@PLT
	ud2
.LBB200_8:
	movb	$0, 71(%rsp)
	jmp	.LBB200_6
.LBB200_9:
.Ltmp110:
	movq	%rax, 72(%rsp)
	movl	%edx, 80(%rsp)
	jmp	.LBB200_7
.Lfunc_end200:
	.size	_ZN4core6result19Result$LT$T$C$E$GT$14unwrap_or_else17h0c34481ec6d1eff7E, .Lfunc_end200-_ZN4core6result19Result$LT$T$C$E$GT$14unwrap_or_else17h0c34481ec6d1eff7E
	.cfi_endproc
	.section	.gcc_except_table,"a",@progbits
	.p2align	2
GCC_except_table200:
.Lexception21:
	.byte	255
	.byte	255
	.byte	1
	.uleb128 .Lcst_end21-.Lcst_begin21
.Lcst_begin21:
	.uleb128 .Ltmp108-.Lfunc_begin21
	.uleb128 .Ltmp109-.Ltmp108
	.uleb128 .Ltmp110-.Lfunc_begin21
	.byte	0
	.uleb128 .Ltmp109-.Lfunc_begin21
	.uleb128 .Lfunc_end200-.Ltmp109
	.byte	0
	.byte	0
.Lcst_end21:
	.p2align	2

	.section	".text._ZN4core6result19Result$LT$T$C$E$GT$14unwrap_or_else17hdc501e754ee4041dE","ax",@progbits
	.p2align	4, 0x90
	.type	_ZN4core6result19Result$LT$T$C$E$GT$14unwrap_or_else17hdc501e754ee4041dE,@function
_ZN4core6result19Result$LT$T$C$E$GT$14unwrap_or_else17hdc501e754ee4041dE:
.Lfunc_begin22:
	.cfi_startproc
	.cfi_personality 155, DW.ref.rust_eh_personality
	.cfi_lsda 27, .Lexception22
	subq	$72, %rsp
	.cfi_def_cfa_offset 80
	movq	%rdi, 16(%rsp)
	movq	%rsi, 24(%rsp)
	movb	$0, 55(%rsp)
	movb	$1, 55(%rsp)
	movq	24(%rsp), %rax
	testq	%rax, %rax
	sete	%cl
	movzbl	%cl, %edx
	movl	%edx, %eax
	jne	.LBB201_3
	jmp	.LBB201_10
.LBB201_10:
	movb	$0, 55(%rsp)
.Ltmp111:
	callq	_ZN5alloc7raw_vec19RawVec$LT$T$C$A$GT$11allocate_in28_$u7b$$u7b$closure$u7d$$u7d$17h02fe4556569fda6fE
.Ltmp112:
	movq	%rdx, 8(%rsp)
	movq	%rax, (%rsp)
	jmp	.LBB201_4
	.cfi_def_cfa_offset 8
	ud2
.LBB201_3:
	.cfi_def_cfa_offset 80
	movq	16(%rsp), %rax
	movq	24(%rsp), %rcx
	movq	%rax, 32(%rsp)
	movq	%rcx, 40(%rsp)
	jmp	.LBB201_5
.LBB201_4:
	movq	(%rsp), %rax
	movq	%rax, 32(%rsp)
	movq	8(%rsp), %rcx
	movq	%rcx, 40(%rsp)
.LBB201_5:
	testb	$1, 55(%rsp)
	jne	.LBB201_8
.LBB201_6:
	movq	32(%rsp), %rax
	movq	40(%rsp), %rdx
	addq	$72, %rsp
	.cfi_def_cfa_offset 8
	retq
.LBB201_7:
	.cfi_def_cfa_offset 80
	movq	56(%rsp), %rdi
	callq	_Unwind_Resume@PLT
	ud2
.LBB201_8:
	movb	$0, 55(%rsp)
	jmp	.LBB201_6
.LBB201_9:
.Ltmp113:
	movq	%rax, 56(%rsp)
	movl	%edx, 64(%rsp)
	jmp	.LBB201_7
.Lfunc_end201:
	.size	_ZN4core6result19Result$LT$T$C$E$GT$14unwrap_or_else17hdc501e754ee4041dE, .Lfunc_end201-_ZN4core6result19Result$LT$T$C$E$GT$14unwrap_or_else17hdc501e754ee4041dE
	.cfi_endproc
	.section	.gcc_except_table,"a",@progbits
	.p2align	2
GCC_except_table201:
.Lexception22:
	.byte	255
	.byte	255
	.byte	1
	.uleb128 .Lcst_end22-.Lcst_begin22
.Lcst_begin22:
	.uleb128 .Ltmp111-.Lfunc_begin22
	.uleb128 .Ltmp112-.Ltmp111
	.uleb128 .Ltmp113-.Lfunc_begin22
	.byte	0
	.uleb128 .Ltmp112-.Lfunc_begin22
	.uleb128 .Lfunc_end201-.Ltmp112
	.byte	0
	.byte	0
.Lcst_end22:
	.p2align	2

	.section	".text._ZN4core6result19Result$LT$T$C$E$GT$14unwrap_or_else17hdf8c57ba2aa40681E","ax",@progbits
	.p2align	4, 0x90
	.type	_ZN4core6result19Result$LT$T$C$E$GT$14unwrap_or_else17hdf8c57ba2aa40681E,@function
_ZN4core6result19Result$LT$T$C$E$GT$14unwrap_or_else17hdf8c57ba2aa40681E:
.Lfunc_begin23:
	.cfi_startproc
	.cfi_personality 155, DW.ref.rust_eh_personality
	.cfi_lsda 27, .Lexception23
	subq	$56, %rsp
	.cfi_def_cfa_offset 64
	movb	$0, 39(%rsp)
	movb	$1, 39(%rsp)
	movq	(%rdi), %rax
	testq	%rax, %rax
	movq	%rdi, (%rsp)
	je	.LBB202_3
	jmp	.LBB202_10
.LBB202_10:
	movq	(%rsp), %rax
	movq	8(%rax), %rcx
	movq	16(%rax), %rdx
	movb	$0, 39(%rsp)
	movq	%rcx, 16(%rsp)
	movq	%rdx, 24(%rsp)
	movq	16(%rsp), %rdi
	movq	24(%rsp), %rsi
.Ltmp114:
	callq	_ZN5alloc7raw_vec19RawVec$LT$T$C$A$GT$11allocate_in28_$u7b$$u7b$closure$u7d$$u7d$17h0ff8b19f096c596dE
.Ltmp115:
	jmp	.LBB202_4
	.cfi_def_cfa_offset 8
	ud2
.LBB202_3:
	.cfi_def_cfa_offset 64
	jmp	.LBB202_5
.LBB202_4:
	jmp	.LBB202_5
.LBB202_5:
	testb	$1, 39(%rsp)
	jne	.LBB202_8
.LBB202_6:
	addq	$56, %rsp
	.cfi_def_cfa_offset 8
	retq
.LBB202_7:
	.cfi_def_cfa_offset 64
	movq	40(%rsp), %rdi
	callq	_Unwind_Resume@PLT
	ud2
.LBB202_8:
	movb	$0, 39(%rsp)
	jmp	.LBB202_6
.LBB202_9:
.Ltmp116:
	movq	%rax, 40(%rsp)
	movl	%edx, 48(%rsp)
	jmp	.LBB202_7
.Lfunc_end202:
	.size	_ZN4core6result19Result$LT$T$C$E$GT$14unwrap_or_else17hdf8c57ba2aa40681E, .Lfunc_end202-_ZN4core6result19Result$LT$T$C$E$GT$14unwrap_or_else17hdf8c57ba2aa40681E
	.cfi_endproc
	.section	.gcc_except_table,"a",@progbits
	.p2align	2
GCC_except_table202:
.Lexception23:
	.byte	255
	.byte	255
	.byte	1
	.uleb128 .Lcst_end23-.Lcst_begin23
.Lcst_begin23:
	.uleb128 .Ltmp114-.Lfunc_begin23
	.uleb128 .Ltmp115-.Ltmp114
	.uleb128 .Ltmp116-.Lfunc_begin23
	.byte	0
	.uleb128 .Ltmp115-.Lfunc_begin23
	.uleb128 .Lfunc_end202-.Ltmp115
	.byte	0
	.byte	0
.Lcst_end23:
	.p2align	2

	.section	".text._ZN4core6result19Result$LT$T$C$E$GT$6unwrap17h3ca8d503f2c98a1eE","ax",@progbits
	.p2align	4, 0x90
	.type	_ZN4core6result19Result$LT$T$C$E$GT$6unwrap17h3ca8d503f2c98a1eE,@function
_ZN4core6result19Result$LT$T$C$E$GT$6unwrap17h3ca8d503f2c98a1eE:
.Lfunc_begin24:
	.cfi_startproc
	.cfi_personality 155, DW.ref.rust_eh_personality
	.cfi_lsda 27, .Lexception24
	subq	$56, %rsp
	.cfi_def_cfa_offset 64
	movq	%rdi, 16(%rsp)
	movq	%rsi, 24(%rsp)
	movq	24(%rsp), %rax
	testq	%rax, %rax
	sete	%cl
	movzbl	%cl, %r8d
	movl	%r8d, %eax
	movq	%rdx, 8(%rsp)
	jne	.LBB203_3
	jmp	.LBB203_8
.LBB203_8:
.Ltmp117:
	leaq	.L__unnamed_10(%rip), %rdi
	leaq	.L__unnamed_11(%rip), %rcx
	movq	_ZN4core6result13unwrap_failed17h19555c3ae40bb845E@GOTPCREL(%rip), %rax
	movl	$43, %esi
	leaq	32(%rsp), %rdx
	movq	8(%rsp), %r8
	callq	*%rax
.Ltmp118:
	jmp	.LBB203_6
	.cfi_def_cfa_offset 8
	ud2
.LBB203_3:
	.cfi_def_cfa_offset 64
	movq	16(%rsp), %rax
	movq	24(%rsp), %rdx
	addq	$56, %rsp
	.cfi_def_cfa_offset 8
	retq
.LBB203_4:
	.cfi_def_cfa_offset 64
	movq	40(%rsp), %rdi
	callq	_Unwind_Resume@PLT
	ud2
.LBB203_5:
	jmp	.LBB203_4
.LBB203_6:
	ud2
.LBB203_7:
.Ltmp119:
	movq	%rax, 40(%rsp)
	movl	%edx, 48(%rsp)
	jmp	.LBB203_5
.Lfunc_end203:
	.size	_ZN4core6result19Result$LT$T$C$E$GT$6unwrap17h3ca8d503f2c98a1eE, .Lfunc_end203-_ZN4core6result19Result$LT$T$C$E$GT$6unwrap17h3ca8d503f2c98a1eE
	.cfi_endproc
	.section	.gcc_except_table,"a",@progbits
	.p2align	2
GCC_except_table203:
.Lexception24:
	.byte	255
	.byte	255
	.byte	1
	.uleb128 .Lcst_end24-.Lcst_begin24
.Lcst_begin24:
	.uleb128 .Ltmp117-.Lfunc_begin24
	.uleb128 .Ltmp118-.Ltmp117
	.uleb128 .Ltmp119-.Lfunc_begin24
	.byte	0
	.uleb128 .Ltmp118-.Lfunc_begin24
	.uleb128 .Lfunc_end203-.Ltmp118
	.byte	0
	.byte	0
.Lcst_end24:
	.p2align	2

	.section	".text._ZN4core6result19Result$LT$T$C$E$GT$7map_err17h30b3cba50d40d8d0E","ax",@progbits
	.p2align	4, 0x90
	.type	_ZN4core6result19Result$LT$T$C$E$GT$7map_err17h30b3cba50d40d8d0E,@function
_ZN4core6result19Result$LT$T$C$E$GT$7map_err17h30b3cba50d40d8d0E:
.Lfunc_begin25:
	.cfi_startproc
	.cfi_personality 155, DW.ref.rust_eh_personality
	.cfi_lsda 27, .Lexception25
	subq	$88, %rsp
	.cfi_def_cfa_offset 96
	movq	%rdi, %rax
	movq	%rsi, 48(%rsp)
	movq	%rdx, 56(%rsp)
	movb	$0, 71(%rsp)
	movb	$1, 71(%rsp)
	movq	48(%rsp), %rdx
	testq	%rdx, %rdx
	sete	%r8b
	movzbl	%r8b, %r9d
	movl	%r9d, %edx
	movq	%rcx, 40(%rsp)
	movq	%rdi, 32(%rsp)
	movq	%rax, 24(%rsp)
	jne	.LBB204_3
	jmp	.LBB204_10
.LBB204_10:
	movb	$0, 71(%rsp)
.Ltmp120:
	movq	40(%rsp), %rdi
	callq	_ZN5alloc7raw_vec11finish_grow28_$u7b$$u7b$closure$u7d$$u7d$17ha035a2362d379484E
.Ltmp121:
	movq	%rdx, 16(%rsp)
	movq	%rax, 8(%rsp)
	jmp	.LBB204_4
	.cfi_def_cfa_offset 8
	ud2
.LBB204_3:
	.cfi_def_cfa_offset 96
	movq	48(%rsp), %rax
	movq	56(%rsp), %rcx
	movq	32(%rsp), %rdx
	movq	%rax, 8(%rdx)
	movq	%rcx, 16(%rdx)
	movq	$0, (%rdx)
	jmp	.LBB204_5
.LBB204_4:
	movq	32(%rsp), %rax
	movq	8(%rsp), %rcx
	movq	%rcx, 8(%rax)
	movq	16(%rsp), %rcx
	movq	%rcx, 16(%rax)
	movq	$1, (%rax)
.LBB204_5:
	testb	$1, 71(%rsp)
	jne	.LBB204_8
.LBB204_6:
	movq	24(%rsp), %rax
	addq	$88, %rsp
	.cfi_def_cfa_offset 8
	retq
.LBB204_7:
	.cfi_def_cfa_offset 96
	movq	72(%rsp), %rdi
	callq	_Unwind_Resume@PLT
	ud2
.LBB204_8:
	movb	$0, 71(%rsp)
	jmp	.LBB204_6
.LBB204_9:
.Ltmp122:
	movq	%rax, 72(%rsp)
	movl	%edx, 80(%rsp)
	jmp	.LBB204_7
.Lfunc_end204:
	.size	_ZN4core6result19Result$LT$T$C$E$GT$7map_err17h30b3cba50d40d8d0E, .Lfunc_end204-_ZN4core6result19Result$LT$T$C$E$GT$7map_err17h30b3cba50d40d8d0E
	.cfi_endproc
	.section	.gcc_except_table,"a",@progbits
	.p2align	2
GCC_except_table204:
.Lexception25:
	.byte	255
	.byte	255
	.byte	1
	.uleb128 .Lcst_end25-.Lcst_begin25
.Lcst_begin25:
	.uleb128 .Ltmp120-.Lfunc_begin25
	.uleb128 .Ltmp121-.Ltmp120
	.uleb128 .Ltmp122-.Lfunc_begin25
	.byte	0
	.uleb128 .Ltmp121-.Lfunc_begin25
	.uleb128 .Lfunc_end204-.Ltmp121
	.byte	0
	.byte	0
.Lcst_end25:
	.p2align	2

	.section	".text._ZN4core6result19Result$LT$T$C$E$GT$7map_err17hd94145188becba37E","ax",@progbits
	.p2align	4, 0x90
	.type	_ZN4core6result19Result$LT$T$C$E$GT$7map_err17hd94145188becba37E,@function
_ZN4core6result19Result$LT$T$C$E$GT$7map_err17hd94145188becba37E:
.Lfunc_begin26:
	.cfi_startproc
	.cfi_personality 155, DW.ref.rust_eh_personality
	.cfi_lsda 27, .Lexception26
	subq	$72, %rsp
	.cfi_def_cfa_offset 80
	movq	%rdi, %rax
	movq	%rsi, 32(%rsp)
	movq	%rdx, 40(%rsp)
	movb	$0, 55(%rsp)
	movb	$1, 55(%rsp)
	movq	40(%rsp), %rcx
	testq	%rcx, %rcx
	sete	%r8b
	movzbl	%r8b, %r9d
	movl	%r9d, %ecx
	movq	%rdi, 24(%rsp)
	movq	%rax, 16(%rsp)
	jne	.LBB205_3
	jmp	.LBB205_10
.LBB205_10:
	movb	$0, 55(%rsp)
.Ltmp123:
	callq	_ZN5alloc7raw_vec11finish_grow28_$u7b$$u7b$closure$u7d$$u7d$17h326d5b81455c0311E
.Ltmp124:
	movq	%rdx, 8(%rsp)
	movq	%rax, (%rsp)
	jmp	.LBB205_4
	.cfi_def_cfa_offset 8
	ud2
.LBB205_3:
	.cfi_def_cfa_offset 80
	movq	32(%rsp), %rax
	movq	40(%rsp), %rcx
	movq	24(%rsp), %rdx
	movq	%rax, 8(%rdx)
	movq	%rcx, 16(%rdx)
	movq	$0, (%rdx)
	jmp	.LBB205_5
.LBB205_4:
	movq	24(%rsp), %rax
	movq	(%rsp), %rcx
	movq	%rcx, 8(%rax)
	movq	8(%rsp), %rcx
	movq	%rcx, 16(%rax)
	movq	$1, (%rax)
.LBB205_5:
	testb	$1, 55(%rsp)
	jne	.LBB205_8
.LBB205_6:
	movq	16(%rsp), %rax
	addq	$72, %rsp
	.cfi_def_cfa_offset 8
	retq
.LBB205_7:
	.cfi_def_cfa_offset 80
	movq	56(%rsp), %rdi
	callq	_Unwind_Resume@PLT
	ud2
.LBB205_8:
	movb	$0, 55(%rsp)
	jmp	.LBB205_6
.LBB205_9:
.Ltmp125:
	movq	%rax, 56(%rsp)
	movl	%edx, 64(%rsp)
	jmp	.LBB205_7
.Lfunc_end205:
	.size	_ZN4core6result19Result$LT$T$C$E$GT$7map_err17hd94145188becba37E, .Lfunc_end205-_ZN4core6result19Result$LT$T$C$E$GT$7map_err17hd94145188becba37E
	.cfi_endproc
	.section	.gcc_except_table,"a",@progbits
	.p2align	2
GCC_except_table205:
.Lexception26:
	.byte	255
	.byte	255
	.byte	1
	.uleb128 .Lcst_end26-.Lcst_begin26
.Lcst_begin26:
	.uleb128 .Ltmp123-.Lfunc_begin26
	.uleb128 .Ltmp124-.Ltmp123
	.uleb128 .Ltmp125-.Lfunc_begin26
	.byte	0
	.uleb128 .Ltmp124-.Lfunc_begin26
	.uleb128 .Lfunc_end205-.Ltmp124
	.byte	0
	.byte	0
.Lcst_end26:
	.p2align	2

	.section	".text._ZN50_$LT$$RF$mut$u20$T$u20$as$u20$core..fmt..Debug$GT$3fmt17h88f0b99bed0ea8f3E","ax",@progbits
	.p2align	4, 0x90
	.type	_ZN50_$LT$$RF$mut$u20$T$u20$as$u20$core..fmt..Debug$GT$3fmt17h88f0b99bed0ea8f3E,@function
_ZN50_$LT$$RF$mut$u20$T$u20$as$u20$core..fmt..Debug$GT$3fmt17h88f0b99bed0ea8f3E:
	.cfi_startproc
	pushq	%rax
	.cfi_def_cfa_offset 16
	movq	(%rdi), %rdi
	callq	_ZN61_$LT$alloc..vec..Vec$LT$T$GT$$u20$as$u20$core..fmt..Debug$GT$3fmt17h3ea1599477786049E
	movb	%al, 7(%rsp)
	movb	7(%rsp), %al
	andb	$1, %al
	movzbl	%al, %eax
	popq	%rcx
	.cfi_def_cfa_offset 8
	retq
.Lfunc_end206:
	.size	_ZN50_$LT$$RF$mut$u20$T$u20$as$u20$core..fmt..Debug$GT$3fmt17h88f0b99bed0ea8f3E, .Lfunc_end206-_ZN50_$LT$$RF$mut$u20$T$u20$as$u20$core..fmt..Debug$GT$3fmt17h88f0b99bed0ea8f3E
	.cfi_endproc

	.section	".text._ZN50_$LT$T$u20$as$u20$core..convert..From$LT$T$GT$$GT$4from17h75d2b286c8ffbbabE","ax",@progbits
	.p2align	4, 0x90
	.type	_ZN50_$LT$T$u20$as$u20$core..convert..From$LT$T$GT$$GT$4from17h75d2b286c8ffbbabE,@function
_ZN50_$LT$T$u20$as$u20$core..convert..From$LT$T$GT$$GT$4from17h75d2b286c8ffbbabE:
	.cfi_startproc
	retq
.Lfunc_end207:
	.size	_ZN50_$LT$T$u20$as$u20$core..convert..From$LT$T$GT$$GT$4from17h75d2b286c8ffbbabE, .Lfunc_end207-_ZN50_$LT$T$u20$as$u20$core..convert..From$LT$T$GT$$GT$4from17h75d2b286c8ffbbabE
	.cfi_endproc

	.section	".text._ZN50_$LT$T$u20$as$u20$core..convert..From$LT$T$GT$$GT$4from17h7c2616d580d495a1E","ax",@progbits
	.p2align	4, 0x90
	.type	_ZN50_$LT$T$u20$as$u20$core..convert..From$LT$T$GT$$GT$4from17h7c2616d580d495a1E,@function
_ZN50_$LT$T$u20$as$u20$core..convert..From$LT$T$GT$$GT$4from17h7c2616d580d495a1E:
	.cfi_startproc
	movq	%rdi, %rax
	movq	%rsi, %rdx
	retq
.Lfunc_end208:
	.size	_ZN50_$LT$T$u20$as$u20$core..convert..From$LT$T$GT$$GT$4from17h7c2616d580d495a1E, .Lfunc_end208-_ZN50_$LT$T$u20$as$u20$core..convert..From$LT$T$GT$$GT$4from17h7c2616d580d495a1E
	.cfi_endproc

	.section	".text._ZN50_$LT$T$u20$as$u20$core..convert..From$LT$T$GT$$GT$4from17he7ebb9a40e6154bcE","ax",@progbits
	.p2align	4, 0x90
	.type	_ZN50_$LT$T$u20$as$u20$core..convert..From$LT$T$GT$$GT$4from17he7ebb9a40e6154bcE,@function
_ZN50_$LT$T$u20$as$u20$core..convert..From$LT$T$GT$$GT$4from17he7ebb9a40e6154bcE:
	.cfi_startproc
	retq
.Lfunc_end209:
	.size	_ZN50_$LT$T$u20$as$u20$core..convert..From$LT$T$GT$$GT$4from17he7ebb9a40e6154bcE, .Lfunc_end209-_ZN50_$LT$T$u20$as$u20$core..convert..From$LT$T$GT$$GT$4from17he7ebb9a40e6154bcE
	.cfi_endproc

	.section	".text._ZN50_$LT$T$u20$as$u20$core..convert..Into$LT$U$GT$$GT$4into17h63e762b98f867993E","ax",@progbits
	.p2align	4, 0x90
	.type	_ZN50_$LT$T$u20$as$u20$core..convert..Into$LT$U$GT$$GT$4into17h63e762b98f867993E,@function
_ZN50_$LT$T$u20$as$u20$core..convert..Into$LT$U$GT$$GT$4into17h63e762b98f867993E:
	.cfi_startproc
	pushq	%rax
	.cfi_def_cfa_offset 16
	callq	_ZN119_$LT$core..ptr..non_null..NonNull$LT$T$GT$$u20$as$u20$core..convert..From$LT$core..ptr..unique..Unique$LT$T$GT$$GT$$GT$4from17hc77575cacddcd3a8E
	movq	%rax, (%rsp)
	movq	(%rsp), %rax
	popq	%rcx
	.cfi_def_cfa_offset 8
	retq
.Lfunc_end210:
	.size	_ZN50_$LT$T$u20$as$u20$core..convert..Into$LT$U$GT$$GT$4into17h63e762b98f867993E, .Lfunc_end210-_ZN50_$LT$T$u20$as$u20$core..convert..Into$LT$U$GT$$GT$4into17h63e762b98f867993E
	.cfi_endproc

	.section	".text._ZN54_$LT$$LP$$RP$$u20$as$u20$std..process..Termination$GT$6report17hc276b125fafbc23dE","ax",@progbits
	.p2align	4, 0x90
	.type	_ZN54_$LT$$LP$$RP$$u20$as$u20$std..process..Termination$GT$6report17hc276b125fafbc23dE,@function
_ZN54_$LT$$LP$$RP$$u20$as$u20$std..process..Termination$GT$6report17hc276b125fafbc23dE:
	.cfi_startproc
	pushq	%rax
	.cfi_def_cfa_offset 16
	xorl	%edi, %edi
	callq	_ZN68_$LT$std..process..ExitCode$u20$as$u20$std..process..Termination$GT$6report17hb746d624053ab5e5E
	movl	%eax, 4(%rsp)
	movl	4(%rsp), %eax
	popq	%rcx
	.cfi_def_cfa_offset 8
	retq
.Lfunc_end211:
	.size	_ZN54_$LT$$LP$$RP$$u20$as$u20$std..process..Termination$GT$6report17hc276b125fafbc23dE, .Lfunc_end211-_ZN54_$LT$$LP$$RP$$u20$as$u20$std..process..Termination$GT$6report17hc276b125fafbc23dE
	.cfi_endproc

	.section	".text._ZN54_$LT$i64$u20$as$u20$core..iter..traits..accum..Sum$GT$3sum17h8dbfc9d7d5d1abfeE","ax",@progbits
	.p2align	4, 0x90
	.type	_ZN54_$LT$i64$u20$as$u20$core..iter..traits..accum..Sum$GT$3sum17h8dbfc9d7d5d1abfeE,@function
_ZN54_$LT$i64$u20$as$u20$core..iter..traits..accum..Sum$GT$3sum17h8dbfc9d7d5d1abfeE:
	.cfi_startproc
	subq	$88, %rsp
	.cfi_def_cfa_offset 96
	xorl	%eax, %eax
	movl	%eax, %esi
	leaq	40(%rsp), %rcx
	movq	%rcx, %rdx
	movq	%rdi, 32(%rsp)
	movq	%rdx, %rdi
	movq	32(%rsp), %rdx
	movq	%rsi, 24(%rsp)
	movq	%rdx, %rsi
	movl	$48, %edx
	movq	%rcx, 16(%rsp)
	callq	memcpy@PLT
	movq	16(%rsp), %rdi
	movq	24(%rsp), %rsi
	callq	_ZN97_$LT$core..iter..adapters..Map$LT$I$C$F$GT$$u20$as$u20$core..iter..traits..iterator..Iterator$GT$4fold17hdfa0d9af7158263fE
	movq	%rax, 8(%rsp)
	movq	8(%rsp), %rax
	addq	$88, %rsp
	.cfi_def_cfa_offset 8
	retq
.Lfunc_end212:
	.size	_ZN54_$LT$i64$u20$as$u20$core..iter..traits..accum..Sum$GT$3sum17h8dbfc9d7d5d1abfeE, .Lfunc_end212-_ZN54_$LT$i64$u20$as$u20$core..iter..traits..accum..Sum$GT$3sum17h8dbfc9d7d5d1abfeE
	.cfi_endproc

	.section	".text._ZN5alloc3str56_$LT$impl$u20$alloc..borrow..ToOwned$u20$for$u20$str$GT$8to_owned17h8757b1eeae47d47bE","ax",@progbits
	.p2align	4, 0x90
	.type	_ZN5alloc3str56_$LT$impl$u20$alloc..borrow..ToOwned$u20$for$u20$str$GT$8to_owned17h8757b1eeae47d47bE,@function
_ZN5alloc3str56_$LT$impl$u20$alloc..borrow..ToOwned$u20$for$u20$str$GT$8to_owned17h8757b1eeae47d47bE:
	.cfi_startproc
	subq	$72, %rsp
	.cfi_def_cfa_offset 80
	movq	%rdi, %rax
	movq	%rsi, 56(%rsp)
	movq	%rdx, 64(%rsp)
	movq	56(%rsp), %rsi
	movq	64(%rsp), %rdx
	movq	%rdi, 24(%rsp)
	movq	%rax, 16(%rsp)
	movq	%rsi, 8(%rsp)
	movq	%rdx, (%rsp)
	leaq	32(%rsp), %rdi
	movq	8(%rsp), %rsi
	movq	(%rsp), %rdx
	callq	_ZN5alloc5slice64_$LT$impl$u20$alloc..borrow..ToOwned$u20$for$u20$$u5b$T$u5d$$GT$8to_owned17h16ee259380bc5265E
	movq	24(%rsp), %rdi
	leaq	32(%rsp), %rsi
	callq	_ZN5alloc6string6String19from_utf8_unchecked17hf639b527bf41b7d7E
	movq	16(%rsp), %rax
	addq	$72, %rsp
	.cfi_def_cfa_offset 8
	retq
.Lfunc_end213:
	.size	_ZN5alloc3str56_$LT$impl$u20$alloc..borrow..ToOwned$u20$for$u20$str$GT$8to_owned17h8757b1eeae47d47bE, .Lfunc_end213-_ZN5alloc3str56_$LT$impl$u20$alloc..borrow..ToOwned$u20$for$u20$str$GT$8to_owned17h8757b1eeae47d47bE
	.cfi_endproc

	.section	.text._ZN5alloc3vec12SetLenOnDrop13increment_len17hc3214b90a0feed8fE,"ax",@progbits
	.p2align	4, 0x90
	.type	_ZN5alloc3vec12SetLenOnDrop13increment_len17hc3214b90a0feed8fE,@function
_ZN5alloc3vec12SetLenOnDrop13increment_len17hc3214b90a0feed8fE:
	.cfi_startproc
	addq	8(%rdi), %rsi
	movq	%rsi, 8(%rdi)
	retq
.Lfunc_end214:
	.size	_ZN5alloc3vec12SetLenOnDrop13increment_len17hc3214b90a0feed8fE, .Lfunc_end214-_ZN5alloc3vec12SetLenOnDrop13increment_len17hc3214b90a0feed8fE
	.cfi_endproc

	.section	.text._ZN5alloc3vec12SetLenOnDrop3new17hcdb3303029b5e345E,"ax",@progbits
	.p2align	4, 0x90
	.type	_ZN5alloc3vec12SetLenOnDrop3new17hcdb3303029b5e345E,@function
_ZN5alloc3vec12SetLenOnDrop3new17hcdb3303029b5e345E:
	.cfi_startproc
	subq	$16, %rsp
	.cfi_def_cfa_offset 24
	movq	(%rdi), %rax
	movq	%rdi, (%rsp)
	movq	%rax, 8(%rsp)
	movq	(%rsp), %rax
	movq	8(%rsp), %rdx
	addq	$16, %rsp
	.cfi_def_cfa_offset 8
	retq
.Lfunc_end215:
	.size	_ZN5alloc3vec12SetLenOnDrop3new17hcdb3303029b5e345E, .Lfunc_end215-_ZN5alloc3vec12SetLenOnDrop3new17hcdb3303029b5e345E
	.cfi_endproc

	.section	".text._ZN5alloc3vec12Vec$LT$T$GT$10as_mut_ptr17h83c8df7d65e2f96aE","ax",@progbits
	.p2align	4, 0x90
	.type	_ZN5alloc3vec12Vec$LT$T$GT$10as_mut_ptr17h83c8df7d65e2f96aE,@function
_ZN5alloc3vec12Vec$LT$T$GT$10as_mut_ptr17h83c8df7d65e2f96aE:
	.cfi_startproc
	pushq	%rax
	.cfi_def_cfa_offset 16
	callq	_ZN5alloc7raw_vec19RawVec$LT$T$C$A$GT$3ptr17h7855012d832a5541E
	movq	%rax, (%rsp)
	movq	(%rsp), %rdi
	callq	_ZN4core3ptr7mut_ptr31_$LT$impl$u20$$BP$mut$u20$T$GT$7is_null17hd1746a54b60151f4E
	movq	(%rsp), %rax
	popq	%rcx
	.cfi_def_cfa_offset 8
	retq
.Lfunc_end216:
	.size	_ZN5alloc3vec12Vec$LT$T$GT$10as_mut_ptr17h83c8df7d65e2f96aE, .Lfunc_end216-_ZN5alloc3vec12Vec$LT$T$GT$10as_mut_ptr17h83c8df7d65e2f96aE
	.cfi_endproc

	.section	".text._ZN5alloc3vec12Vec$LT$T$GT$10as_mut_ptr17hd8d973b46db87d16E","ax",@progbits
	.p2align	4, 0x90
	.type	_ZN5alloc3vec12Vec$LT$T$GT$10as_mut_ptr17hd8d973b46db87d16E,@function
_ZN5alloc3vec12Vec$LT$T$GT$10as_mut_ptr17hd8d973b46db87d16E:
	.cfi_startproc
	pushq	%rax
	.cfi_def_cfa_offset 16
	callq	_ZN5alloc7raw_vec19RawVec$LT$T$C$A$GT$3ptr17hf90e0826a5bb2e2aE
	movq	%rax, (%rsp)
	movq	(%rsp), %rdi
	callq	_ZN4core3ptr7mut_ptr31_$LT$impl$u20$$BP$mut$u20$T$GT$7is_null17hdb695c7ee1a67105E
	movq	(%rsp), %rax
	popq	%rcx
	.cfi_def_cfa_offset 8
	retq
.Lfunc_end217:
	.size	_ZN5alloc3vec12Vec$LT$T$GT$10as_mut_ptr17hd8d973b46db87d16E, .Lfunc_end217-_ZN5alloc3vec12Vec$LT$T$GT$10as_mut_ptr17hd8d973b46db87d16E
	.cfi_endproc

	.section	".text._ZN5alloc3vec12Vec$LT$T$GT$13with_capacity17hab40d6e2dbf2c3eaE","ax",@progbits
	.p2align	4, 0x90
	.type	_ZN5alloc3vec12Vec$LT$T$GT$13with_capacity17hab40d6e2dbf2c3eaE,@function
_ZN5alloc3vec12Vec$LT$T$GT$13with_capacity17hab40d6e2dbf2c3eaE:
	.cfi_startproc
	subq	$40, %rsp
	.cfi_def_cfa_offset 48
	movq	%rdi, %rax
	movq	%rdi, 32(%rsp)
	movq	%rsi, %rdi
	movq	%rax, 24(%rsp)
	callq	_ZN5alloc7raw_vec15RawVec$LT$T$GT$13with_capacity17h01fc8be62ea2dd74E
	movq	%rax, 16(%rsp)
	movq	%rdx, 8(%rsp)
	movq	32(%rsp), %rax
	movq	16(%rsp), %rcx
	movq	%rcx, (%rax)
	movq	8(%rsp), %rdx
	movq	%rdx, 8(%rax)
	movq	$0, 16(%rax)
	movq	24(%rsp), %rax
	addq	$40, %rsp
	.cfi_def_cfa_offset 8
	retq
.Lfunc_end218:
	.size	_ZN5alloc3vec12Vec$LT$T$GT$13with_capacity17hab40d6e2dbf2c3eaE, .Lfunc_end218-_ZN5alloc3vec12Vec$LT$T$GT$13with_capacity17hab40d6e2dbf2c3eaE
	.cfi_endproc

	.section	".text._ZN5alloc3vec12Vec$LT$T$GT$14from_raw_parts17hd95899dd5a53902eE","ax",@progbits
	.p2align	4, 0x90
	.type	_ZN5alloc3vec12Vec$LT$T$GT$14from_raw_parts17hd95899dd5a53902eE,@function
_ZN5alloc3vec12Vec$LT$T$GT$14from_raw_parts17hd95899dd5a53902eE:
	.cfi_startproc
	subq	$40, %rsp
	.cfi_def_cfa_offset 48
	movq	%rdi, %rax
	movq	%rdi, 32(%rsp)
	movq	%rsi, %rdi
	movq	%rcx, %rsi
	movq	%rdx, 24(%rsp)
	movq	%rax, 16(%rsp)
	callq	_ZN5alloc7raw_vec15RawVec$LT$T$GT$14from_raw_parts17h79c12bc7891f2c9cE
	movq	%rax, 8(%rsp)
	movq	%rdx, (%rsp)
	movq	32(%rsp), %rax
	movq	8(%rsp), %rcx
	movq	%rcx, (%rax)
	movq	(%rsp), %rdx
	movq	%rdx, 8(%rax)
	movq	24(%rsp), %rsi
	movq	%rsi, 16(%rax)
	movq	16(%rsp), %rax
	addq	$40, %rsp
	.cfi_def_cfa_offset 8
	retq
.Lfunc_end219:
	.size	_ZN5alloc3vec12Vec$LT$T$GT$14from_raw_parts17hd95899dd5a53902eE, .Lfunc_end219-_ZN5alloc3vec12Vec$LT$T$GT$14from_raw_parts17hd95899dd5a53902eE
	.cfi_endproc

	.section	".text._ZN5alloc3vec12Vec$LT$T$GT$16extend_desugared17h1defc450efbc0b3bE","ax",@progbits
	.p2align	4, 0x90
	.type	_ZN5alloc3vec12Vec$LT$T$GT$16extend_desugared17h1defc450efbc0b3bE,@function
_ZN5alloc3vec12Vec$LT$T$GT$16extend_desugared17h1defc450efbc0b3bE:
.Lfunc_begin27:
	.cfi_startproc
	.cfi_personality 155, DW.ref.rust_eh_personality
	.cfi_lsda 27, .Lexception27
	subq	$136, %rsp
	.cfi_def_cfa_offset 144
	movq	%rsi, 64(%rsp)
	movq	%rdx, 72(%rsp)
	movq	%rdi, 56(%rsp)
.LBB220_1:
	movb	$0, 119(%rsp)
.Ltmp126:
	leaq	64(%rsp), %rdi
	callq	_ZN97_$LT$core..iter..adapters..Map$LT$I$C$F$GT$$u20$as$u20$core..iter..traits..iterator..Iterator$GT$4next17h4e3deabb1ceaec6bE
.Ltmp127:
	movl	%edx, 52(%rsp)
	movl	%eax, 48(%rsp)
	jmp	.LBB220_4
.LBB220_2:
	movq	120(%rsp), %rdi
	callq	_Unwind_Resume@PLT
	ud2
.LBB220_3:
	jmp	.LBB220_2
.LBB220_4:
	movl	48(%rsp), %eax
	movl	%eax, 80(%rsp)
	movl	52(%rsp), %ecx
	movl	%ecx, 84(%rsp)
	movl	80(%rsp), %edx
	movl	%edx, %esi
	cmpq	$1, %rsi
	je	.LBB220_6
	jmp	.LBB220_20
.LBB220_6:
	movb	$1, 119(%rsp)
	movl	84(%rsp), %esi
.Ltmp129:
	movq	56(%rsp), %rdi
	movl	%esi, 44(%rsp)
	callq	_ZN5alloc3vec12Vec$LT$T$GT$3len17h7f17806b45e48399E
.Ltmp130:
	movq	%rax, 32(%rsp)
	jmp	.LBB220_7
.LBB220_7:
.Ltmp131:
	movq	56(%rsp), %rdi
	callq	_ZN5alloc3vec12Vec$LT$T$GT$8capacity17h862b9ad2d8bf5fedE
.Ltmp132:
	movq	%rax, 24(%rsp)
	jmp	.LBB220_9
.LBB220_8:
	jmp	.LBB220_3
.LBB220_9:
	movq	32(%rsp), %rax
	movq	24(%rsp), %rcx
	cmpq	%rcx, %rax
	je	.LBB220_11
	jmp	.LBB220_15
.LBB220_11:
.Ltmp133:
	leaq	88(%rsp), %rdi
	leaq	64(%rsp), %rsi
	callq	_ZN97_$LT$core..iter..adapters..Map$LT$I$C$F$GT$$u20$as$u20$core..iter..traits..iterator..Iterator$GT$9size_hint17h7795d503d0b41960E
.Ltmp134:
	jmp	.LBB220_12
.LBB220_12:
	movq	88(%rsp), %rdi
.Ltmp135:
	movl	$1, %esi
	callq	_ZN4core3num23_$LT$impl$u20$usize$GT$14saturating_add17hd3c87b98abb34311E
.Ltmp136:
	movq	%rax, 16(%rsp)
	jmp	.LBB220_13
.LBB220_13:
.Ltmp137:
	movq	56(%rsp), %rdi
	movq	16(%rsp), %rsi
	callq	_ZN5alloc3vec12Vec$LT$T$GT$7reserve17h24a858e1f9cf5a8dE
.Ltmp138:
	jmp	.LBB220_14
.LBB220_14:
	jmp	.LBB220_15
.LBB220_15:
.Ltmp139:
	movq	56(%rsp), %rdi
	callq	_ZN5alloc3vec12Vec$LT$T$GT$10as_mut_ptr17hd8d973b46db87d16E
.Ltmp140:
	movq	%rax, 8(%rsp)
	jmp	.LBB220_16
.LBB220_16:
.Ltmp141:
	movq	8(%rsp), %rdi
	movq	32(%rsp), %rsi
	callq	_ZN4core3ptr7mut_ptr31_$LT$impl$u20$$BP$mut$u20$T$GT$3add17h0d134851b410e705E
.Ltmp142:
	movq	%rax, (%rsp)
	jmp	.LBB220_17
.LBB220_17:
	movb	$0, 119(%rsp)
.Ltmp143:
	movq	(%rsp), %rdi
	movl	44(%rsp), %esi
	callq	_ZN4core3ptr5write17h60ee9ef2b529c500E
.Ltmp144:
	jmp	.LBB220_18
.LBB220_18:
	movq	32(%rsp), %rax
	addq	$1, %rax
.Ltmp145:
	movq	56(%rsp), %rdi
	movq	%rax, %rsi
	callq	_ZN5alloc3vec12Vec$LT$T$GT$7set_len17ha27b2e2d026c2955E
.Ltmp146:
	jmp	.LBB220_19
.LBB220_19:
	movb	$0, 119(%rsp)
	jmp	.LBB220_1
.LBB220_20:
	jmp	.LBB220_21
.LBB220_21:
	addq	$136, %rsp
	.cfi_def_cfa_offset 8
	retq
.LBB220_22:
	.cfi_def_cfa_offset 144
	movb	$0, 119(%rsp)
	jmp	.LBB220_8
.LBB220_23:
	testb	$1, 119(%rsp)
	jne	.LBB220_22
	jmp	.LBB220_8
.LBB220_24:
.Ltmp128:
	movq	%rax, 120(%rsp)
	movl	%edx, 128(%rsp)
	jmp	.LBB220_3
.LBB220_25:
.Ltmp147:
	movq	%rax, 120(%rsp)
	movl	%edx, 128(%rsp)
	jmp	.LBB220_23
.Lfunc_end220:
	.size	_ZN5alloc3vec12Vec$LT$T$GT$16extend_desugared17h1defc450efbc0b3bE, .Lfunc_end220-_ZN5alloc3vec12Vec$LT$T$GT$16extend_desugared17h1defc450efbc0b3bE
	.cfi_endproc
	.section	.gcc_except_table,"a",@progbits
	.p2align	2
GCC_except_table220:
.Lexception27:
	.byte	255
	.byte	255
	.byte	1
	.uleb128 .Lcst_end27-.Lcst_begin27
.Lcst_begin27:
	.uleb128 .Ltmp126-.Lfunc_begin27
	.uleb128 .Ltmp127-.Ltmp126
	.uleb128 .Ltmp128-.Lfunc_begin27
	.byte	0
	.uleb128 .Ltmp127-.Lfunc_begin27
	.uleb128 .Ltmp129-.Ltmp127
	.byte	0
	.byte	0
	.uleb128 .Ltmp129-.Lfunc_begin27
	.uleb128 .Ltmp146-.Ltmp129
	.uleb128 .Ltmp147-.Lfunc_begin27
	.byte	0
.Lcst_end27:
	.p2align	2

	.section	".text._ZN5alloc3vec12Vec$LT$T$GT$17extend_from_slice17h4951ff97727d1b41E","ax",@progbits
	.p2align	4, 0x90
	.type	_ZN5alloc3vec12Vec$LT$T$GT$17extend_from_slice17h4951ff97727d1b41E,@function
_ZN5alloc3vec12Vec$LT$T$GT$17extend_from_slice17h4951ff97727d1b41E:
	.cfi_startproc
	subq	$24, %rsp
	.cfi_def_cfa_offset 32
	movq	%rdi, 16(%rsp)
	movq	%rsi, %rdi
	movq	%rdx, %rsi
	callq	_ZN4core5slice29_$LT$impl$u20$$u5b$T$u5d$$GT$4iter17ha0219fcfb5ab00b4E
	movq	%rax, 8(%rsp)
	movq	%rdx, (%rsp)
	movq	16(%rsp), %rdi
	movq	8(%rsp), %rsi
	movq	(%rsp), %rdx
	callq	_ZN109_$LT$alloc..vec..Vec$LT$T$GT$$u20$as$u20$alloc..vec..SpecExtend$LT$$RF$T$C$core..slice..Iter$LT$T$GT$$GT$$GT$11spec_extend17hc44d851385de3327E
	addq	$24, %rsp
	.cfi_def_cfa_offset 8
	retq
.Lfunc_end221:
	.size	_ZN5alloc3vec12Vec$LT$T$GT$17extend_from_slice17h4951ff97727d1b41E, .Lfunc_end221-_ZN5alloc3vec12Vec$LT$T$GT$17extend_from_slice17h4951ff97727d1b41E
	.cfi_endproc

	.section	".text._ZN5alloc3vec12Vec$LT$T$GT$3len17h60ce8c16853a4a72E","ax",@progbits
	.p2align	4, 0x90
	.type	_ZN5alloc3vec12Vec$LT$T$GT$3len17h60ce8c16853a4a72E,@function
_ZN5alloc3vec12Vec$LT$T$GT$3len17h60ce8c16853a4a72E:
	.cfi_startproc
	movq	16(%rdi), %rax
	retq
.Lfunc_end222:
	.size	_ZN5alloc3vec12Vec$LT$T$GT$3len17h60ce8c16853a4a72E, .Lfunc_end222-_ZN5alloc3vec12Vec$LT$T$GT$3len17h60ce8c16853a4a72E
	.cfi_endproc

	.section	".text._ZN5alloc3vec12Vec$LT$T$GT$3len17h7f17806b45e48399E","ax",@progbits
	.p2align	4, 0x90
	.type	_ZN5alloc3vec12Vec$LT$T$GT$3len17h7f17806b45e48399E,@function
_ZN5alloc3vec12Vec$LT$T$GT$3len17h7f17806b45e48399E:
	.cfi_startproc
	movq	16(%rdi), %rax
	retq
.Lfunc_end223:
	.size	_ZN5alloc3vec12Vec$LT$T$GT$3len17h7f17806b45e48399E, .Lfunc_end223-_ZN5alloc3vec12Vec$LT$T$GT$3len17h7f17806b45e48399E
	.cfi_endproc

	.section	".text._ZN5alloc3vec12Vec$LT$T$GT$3new17h23f92ec87d31e28cE","ax",@progbits
	.p2align	4, 0x90
	.type	_ZN5alloc3vec12Vec$LT$T$GT$3new17h23f92ec87d31e28cE,@function
_ZN5alloc3vec12Vec$LT$T$GT$3new17h23f92ec87d31e28cE:
	.cfi_startproc
	movq	%rdi, %rax
	movq	.L__unnamed_12(%rip), %rcx
	movq	.L__unnamed_12+8(%rip), %rdx
	movq	%rcx, (%rdi)
	movq	%rdx, 8(%rdi)
	movq	$0, 16(%rdi)
	retq
.Lfunc_end224:
	.size	_ZN5alloc3vec12Vec$LT$T$GT$3new17h23f92ec87d31e28cE, .Lfunc_end224-_ZN5alloc3vec12Vec$LT$T$GT$3new17h23f92ec87d31e28cE
	.cfi_endproc

	.section	".text._ZN5alloc3vec12Vec$LT$T$GT$6as_ptr17h64465529c9664aa9E","ax",@progbits
	.p2align	4, 0x90
	.type	_ZN5alloc3vec12Vec$LT$T$GT$6as_ptr17h64465529c9664aa9E,@function
_ZN5alloc3vec12Vec$LT$T$GT$6as_ptr17h64465529c9664aa9E:
	.cfi_startproc
	pushq	%rax
	.cfi_def_cfa_offset 16
	callq	_ZN5alloc7raw_vec19RawVec$LT$T$C$A$GT$3ptr17hf90e0826a5bb2e2aE
	movq	%rax, (%rsp)
	movq	(%rsp), %rdi
	callq	_ZN4core3ptr7mut_ptr31_$LT$impl$u20$$BP$mut$u20$T$GT$7is_null17hdb695c7ee1a67105E
	movq	(%rsp), %rax
	popq	%rcx
	.cfi_def_cfa_offset 8
	retq
.Lfunc_end225:
	.size	_ZN5alloc3vec12Vec$LT$T$GT$6as_ptr17h64465529c9664aa9E, .Lfunc_end225-_ZN5alloc3vec12Vec$LT$T$GT$6as_ptr17h64465529c9664aa9E
	.cfi_endproc

	.section	".text._ZN5alloc3vec12Vec$LT$T$GT$7reserve17h24a858e1f9cf5a8dE","ax",@progbits
	.p2align	4, 0x90
	.type	_ZN5alloc3vec12Vec$LT$T$GT$7reserve17h24a858e1f9cf5a8dE,@function
_ZN5alloc3vec12Vec$LT$T$GT$7reserve17h24a858e1f9cf5a8dE:
	.cfi_startproc
	pushq	%rax
	.cfi_def_cfa_offset 16
	movq	%rdi, %rax
	movq	16(%rdi), %rcx
	movq	%rax, %rdi
	movq	%rsi, (%rsp)
	movq	%rcx, %rsi
	movq	(%rsp), %rdx
	callq	_ZN5alloc7raw_vec19RawVec$LT$T$C$A$GT$7reserve17hed8456c5681765cfE
	popq	%rax
	.cfi_def_cfa_offset 8
	retq
.Lfunc_end226:
	.size	_ZN5alloc3vec12Vec$LT$T$GT$7reserve17h24a858e1f9cf5a8dE, .Lfunc_end226-_ZN5alloc3vec12Vec$LT$T$GT$7reserve17h24a858e1f9cf5a8dE
	.cfi_endproc

	.section	".text._ZN5alloc3vec12Vec$LT$T$GT$7reserve17h8556103f1688e9c9E","ax",@progbits
	.p2align	4, 0x90
	.type	_ZN5alloc3vec12Vec$LT$T$GT$7reserve17h8556103f1688e9c9E,@function
_ZN5alloc3vec12Vec$LT$T$GT$7reserve17h8556103f1688e9c9E:
	.cfi_startproc
	pushq	%rax
	.cfi_def_cfa_offset 16
	movq	%rdi, %rax
	movq	16(%rdi), %rcx
	movq	%rax, %rdi
	movq	%rsi, (%rsp)
	movq	%rcx, %rsi
	movq	(%rsp), %rdx
	callq	_ZN5alloc7raw_vec19RawVec$LT$T$C$A$GT$7reserve17hc82aa1a9426440e6E
	popq	%rax
	.cfi_def_cfa_offset 8
	retq
.Lfunc_end227:
	.size	_ZN5alloc3vec12Vec$LT$T$GT$7reserve17h8556103f1688e9c9E, .Lfunc_end227-_ZN5alloc3vec12Vec$LT$T$GT$7reserve17h8556103f1688e9c9E
	.cfi_endproc

	.section	".text._ZN5alloc3vec12Vec$LT$T$GT$7set_len17ha27b2e2d026c2955E","ax",@progbits
	.p2align	4, 0x90
	.type	_ZN5alloc3vec12Vec$LT$T$GT$7set_len17ha27b2e2d026c2955E,@function
_ZN5alloc3vec12Vec$LT$T$GT$7set_len17ha27b2e2d026c2955E:
	.cfi_startproc
	movq	%rsi, 16(%rdi)
	retq
.Lfunc_end228:
	.size	_ZN5alloc3vec12Vec$LT$T$GT$7set_len17ha27b2e2d026c2955E, .Lfunc_end228-_ZN5alloc3vec12Vec$LT$T$GT$7set_len17ha27b2e2d026c2955E
	.cfi_endproc

	.section	".text._ZN5alloc3vec12Vec$LT$T$GT$7set_len17hff0a8ab7e4b18312E","ax",@progbits
	.p2align	4, 0x90
	.type	_ZN5alloc3vec12Vec$LT$T$GT$7set_len17hff0a8ab7e4b18312E,@function
_ZN5alloc3vec12Vec$LT$T$GT$7set_len17hff0a8ab7e4b18312E:
	.cfi_startproc
	movq	%rsi, 16(%rdi)
	retq
.Lfunc_end229:
	.size	_ZN5alloc3vec12Vec$LT$T$GT$7set_len17hff0a8ab7e4b18312E, .Lfunc_end229-_ZN5alloc3vec12Vec$LT$T$GT$7set_len17hff0a8ab7e4b18312E
	.cfi_endproc

	.section	".text._ZN5alloc3vec12Vec$LT$T$GT$8capacity17h862b9ad2d8bf5fedE","ax",@progbits
	.p2align	4, 0x90
	.type	_ZN5alloc3vec12Vec$LT$T$GT$8capacity17h862b9ad2d8bf5fedE,@function
_ZN5alloc3vec12Vec$LT$T$GT$8capacity17h862b9ad2d8bf5fedE:
	.cfi_startproc
	subq	$32, %rsp
	.cfi_def_cfa_offset 40
	movq	$4, 24(%rsp)
	cmpq	$0, 24(%rsp)
	movq	%rdi, 8(%rsp)
	je	.LBB230_2
	movq	8(%rsp), %rax
	movq	8(%rax), %rcx
	movq	%rcx, 16(%rsp)
	jmp	.LBB230_3
.LBB230_2:
	movq	$-1, 16(%rsp)
.LBB230_3:
	movq	16(%rsp), %rax
	movq	%rax, (%rsp)
	movq	(%rsp), %rax
	addq	$32, %rsp
	.cfi_def_cfa_offset 8
	retq
.Lfunc_end230:
	.size	_ZN5alloc3vec12Vec$LT$T$GT$8capacity17h862b9ad2d8bf5fedE, .Lfunc_end230-_ZN5alloc3vec12Vec$LT$T$GT$8capacity17h862b9ad2d8bf5fedE
	.cfi_endproc

	.section	.text._ZN5alloc5alloc12alloc_zeroed17he2c833b5c0d6c21fE,"ax",@progbits
	.p2align	4, 0x90
	.type	_ZN5alloc5alloc12alloc_zeroed17he2c833b5c0d6c21fE,@function
_ZN5alloc5alloc12alloc_zeroed17he2c833b5c0d6c21fE:
	.cfi_startproc
	subq	$40, %rsp
	.cfi_def_cfa_offset 48
	movq	%rdi, 24(%rsp)
	movq	%rsi, 32(%rsp)
	leaq	24(%rsp), %rdi
	callq	_ZN4core5alloc6layout6Layout4size17hb929b93d984b458aE
	movq	%rax, 16(%rsp)
	leaq	24(%rsp), %rdi
	callq	_ZN4core5alloc6layout6Layout5align17h66176d46be05d28eE
	movq	%rax, 8(%rsp)
	movq	16(%rsp), %rdi
	movq	8(%rsp), %rsi
	callq	*__rust_alloc_zeroed@GOTPCREL(%rip)
	movq	%rax, (%rsp)
	movq	(%rsp), %rax
	addq	$40, %rsp
	.cfi_def_cfa_offset 8
	retq
.Lfunc_end231:
	.size	_ZN5alloc5alloc12alloc_zeroed17he2c833b5c0d6c21fE, .Lfunc_end231-_ZN5alloc5alloc12alloc_zeroed17he2c833b5c0d6c21fE
	.cfi_endproc

	.section	.text._ZN5alloc5alloc15exchange_malloc17hc2af92ba6143896dE,"ax",@progbits
	.p2align	4, 0x90
	.type	_ZN5alloc5alloc15exchange_malloc17hc2af92ba6143896dE,@function
_ZN5alloc5alloc15exchange_malloc17hc2af92ba6143896dE:
	.cfi_startproc
	subq	$56, %rsp
	.cfi_def_cfa_offset 64
	callq	_ZN4core5alloc6layout6Layout25from_size_align_unchecked17ha33e1ad4e9db39f5E
	movq	%rax, 24(%rsp)
	movq	%rdx, 16(%rsp)
	leaq	48(%rsp), %rdi
	xorl	%ecx, %ecx
	movq	24(%rsp), %rsi
	movq	16(%rsp), %rdx
	callq	_ZN62_$LT$alloc..alloc..Global$u20$as$u20$core..alloc..AllocRef$GT$5alloc17hf020b3bab9ed835eE
	movq	%rdx, 40(%rsp)
	movq	%rax, 32(%rsp)
	movq	32(%rsp), %rax
	testq	%rax, %rax
	sete	%cl
	movzbl	%cl, %edx
	movl	%edx, %eax
	jne	.LBB232_5
	jmp	.LBB232_7
.LBB232_7:
	movq	_ZN5alloc5alloc18handle_alloc_error17hb4f79dda046419e4E@GOTPCREL(%rip), %rax
	movq	24(%rsp), %rdi
	movq	16(%rsp), %rsi
	callq	*%rax
	ud2
	.cfi_def_cfa_offset 8
	ud2
.LBB232_5:
	.cfi_def_cfa_offset 64
	movq	32(%rsp), %rdi
	callq	_ZN4core3ptr8non_null16NonNull$LT$T$GT$6as_ptr17h1c63eb2bdb3c1857E
	movq	%rax, 8(%rsp)
	movq	8(%rsp), %rax
	addq	$56, %rsp
	.cfi_def_cfa_offset 8
	retq
.Lfunc_end232:
	.size	_ZN5alloc5alloc15exchange_malloc17hc2af92ba6143896dE, .Lfunc_end232-_ZN5alloc5alloc15exchange_malloc17hc2af92ba6143896dE
	.cfi_endproc

	.section	.text._ZN5alloc5alloc5alloc17h884c7f671245183eE,"ax",@progbits
	.p2align	4, 0x90
	.type	_ZN5alloc5alloc5alloc17h884c7f671245183eE,@function
_ZN5alloc5alloc5alloc17h884c7f671245183eE:
	.cfi_startproc
	subq	$40, %rsp
	.cfi_def_cfa_offset 48
	movq	%rdi, 24(%rsp)
	movq	%rsi, 32(%rsp)
	leaq	24(%rsp), %rdi
	callq	_ZN4core5alloc6layout6Layout4size17hb929b93d984b458aE
	movq	%rax, 16(%rsp)
	leaq	24(%rsp), %rdi
	callq	_ZN4core5alloc6layout6Layout5align17h66176d46be05d28eE
	movq	%rax, 8(%rsp)
	movq	16(%rsp), %rdi
	movq	8(%rsp), %rsi
	callq	*__rust_alloc@GOTPCREL(%rip)
	movq	%rax, (%rsp)
	movq	(%rsp), %rax
	addq	$40, %rsp
	.cfi_def_cfa_offset 8
	retq
.Lfunc_end233:
	.size	_ZN5alloc5alloc5alloc17h884c7f671245183eE, .Lfunc_end233-_ZN5alloc5alloc5alloc17h884c7f671245183eE
	.cfi_endproc

	.section	.text._ZN5alloc5alloc7dealloc17h73eb8bee96ff0c05E,"ax",@progbits
	.p2align	4, 0x90
	.type	_ZN5alloc5alloc7dealloc17h73eb8bee96ff0c05E,@function
_ZN5alloc5alloc7dealloc17h73eb8bee96ff0c05E:
	.cfi_startproc
	subq	$40, %rsp
	.cfi_def_cfa_offset 48
	movq	%rsi, 24(%rsp)
	movq	%rdx, 32(%rsp)
	leaq	24(%rsp), %rax
	movq	%rdi, 16(%rsp)
	movq	%rax, %rdi
	callq	_ZN4core5alloc6layout6Layout4size17hb929b93d984b458aE
	movq	%rax, 8(%rsp)
	leaq	24(%rsp), %rdi
	callq	_ZN4core5alloc6layout6Layout5align17h66176d46be05d28eE
	movq	%rax, (%rsp)
	movq	16(%rsp), %rdi
	movq	8(%rsp), %rsi
	movq	(%rsp), %rdx
	callq	*__rust_dealloc@GOTPCREL(%rip)
	addq	$40, %rsp
	.cfi_def_cfa_offset 8
	retq
.Lfunc_end234:
	.size	_ZN5alloc5alloc7dealloc17h73eb8bee96ff0c05E, .Lfunc_end234-_ZN5alloc5alloc7dealloc17h73eb8bee96ff0c05E
	.cfi_endproc

	.section	.text._ZN5alloc5alloc7realloc17he78e6287de343184E,"ax",@progbits
	.p2align	4, 0x90
	.type	_ZN5alloc5alloc7realloc17he78e6287de343184E,@function
_ZN5alloc5alloc7realloc17he78e6287de343184E:
	.cfi_startproc
	subq	$56, %rsp
	.cfi_def_cfa_offset 64
	movq	%rsi, 40(%rsp)
	movq	%rdx, 48(%rsp)
	leaq	40(%rsp), %rax
	movq	%rdi, 32(%rsp)
	movq	%rax, %rdi
	movq	%rcx, 24(%rsp)
	callq	_ZN4core5alloc6layout6Layout4size17hb929b93d984b458aE
	movq	%rax, 16(%rsp)
	leaq	40(%rsp), %rdi
	callq	_ZN4core5alloc6layout6Layout5align17h66176d46be05d28eE
	movq	%rax, 8(%rsp)
	movq	32(%rsp), %rdi
	movq	16(%rsp), %rsi
	movq	8(%rsp), %rdx
	movq	24(%rsp), %rcx
	callq	*__rust_realloc@GOTPCREL(%rip)
	movq	%rax, (%rsp)
	movq	(%rsp), %rax
	addq	$56, %rsp
	.cfi_def_cfa_offset 8
	retq
.Lfunc_end235:
	.size	_ZN5alloc5alloc7realloc17he78e6287de343184E, .Lfunc_end235-_ZN5alloc5alloc7realloc17he78e6287de343184E
	.cfi_endproc

	.section	.text._ZN5alloc5alloc8box_free17h1f7cffbb3f0f116aE,"ax",@progbits
	.p2align	4, 0x90
	.type	_ZN5alloc5alloc8box_free17h1f7cffbb3f0f116aE,@function
_ZN5alloc5alloc8box_free17h1f7cffbb3f0f116aE:
	.cfi_startproc
	subq	$104, %rsp
	.cfi_def_cfa_offset 112
	movq	%rdi, 64(%rsp)
	movq	%rsi, 72(%rsp)
	leaq	64(%rsp), %rdi
	callq	_ZN4core3ptr6unique15Unique$LT$T$GT$6as_ref17h591279a720b7eaabE
	movq	%rdx, 56(%rsp)
	movq	56(%rsp), %rax
	shlq	$2, %rax
	movq	%rax, 88(%rsp)
	movq	88(%rsp), %rdi
	movq	%rdi, 48(%rsp)
	leaq	64(%rsp), %rdi
	callq	_ZN4core3ptr6unique15Unique$LT$T$GT$6as_ref17h591279a720b7eaabE
	movq	$4, 96(%rsp)
	movq	96(%rsp), %rsi
	movq	%rsi, 40(%rsp)
	movq	48(%rsp), %rdi
	movq	40(%rsp), %rsi
	callq	_ZN4core5alloc6layout6Layout25from_size_align_unchecked17ha33e1ad4e9db39f5E
	movq	%rax, 32(%rsp)
	movq	%rdx, 24(%rsp)
	movq	64(%rsp), %rdi
	movq	72(%rsp), %rsi
	callq	_ZN4core3ptr6unique15Unique$LT$T$GT$4cast17hb2ed74df0a2036a0E
	movq	%rax, 16(%rsp)
	movq	16(%rsp), %rdi
	callq	_ZN50_$LT$T$u20$as$u20$core..convert..Into$LT$U$GT$$GT$4into17h63e762b98f867993E
	movq	%rax, 8(%rsp)
	leaq	80(%rsp), %rdi
	movq	8(%rsp), %rsi
	movq	32(%rsp), %rdx
	movq	24(%rsp), %rcx
	callq	_ZN62_$LT$alloc..alloc..Global$u20$as$u20$core..alloc..AllocRef$GT$7dealloc17h8f054606944b754bE
	addq	$104, %rsp
	.cfi_def_cfa_offset 8
	retq
.Lfunc_end236:
	.size	_ZN5alloc5alloc8box_free17h1f7cffbb3f0f116aE, .Lfunc_end236-_ZN5alloc5alloc8box_free17h1f7cffbb3f0f116aE
	.cfi_endproc

	.section	.text._ZN5alloc5alloc8box_free17h82f09ed964c2eff5E,"ax",@progbits
	.p2align	4, 0x90
	.type	_ZN5alloc5alloc8box_free17h82f09ed964c2eff5E,@function
_ZN5alloc5alloc8box_free17h82f09ed964c2eff5E:
	.cfi_startproc
	subq	$104, %rsp
	.cfi_def_cfa_offset 112
	movq	%rdi, 64(%rsp)
	movq	%rsi, 72(%rsp)
	leaq	64(%rsp), %rdi
	callq	_ZN4core3ptr6unique15Unique$LT$T$GT$6as_ref17h1448449c338d22b4E
	movq	%rdx, 56(%rsp)
	movq	56(%rsp), %rax
	movq	8(%rax), %rcx
	movq	%rcx, 88(%rsp)
	movq	88(%rsp), %rdi
	movq	%rdi, 48(%rsp)
	leaq	64(%rsp), %rdi
	callq	_ZN4core3ptr6unique15Unique$LT$T$GT$6as_ref17h1448449c338d22b4E
	movq	%rdx, 40(%rsp)
	movq	40(%rsp), %rax
	movq	16(%rax), %rcx
	movq	%rcx, 96(%rsp)
	movq	96(%rsp), %rsi
	movq	%rsi, 32(%rsp)
	movq	48(%rsp), %rdi
	movq	32(%rsp), %rsi
	callq	_ZN4core5alloc6layout6Layout25from_size_align_unchecked17ha33e1ad4e9db39f5E
	movq	%rax, 24(%rsp)
	movq	%rdx, 16(%rsp)
	movq	64(%rsp), %rdi
	movq	72(%rsp), %rsi
	callq	_ZN4core3ptr6unique15Unique$LT$T$GT$4cast17h4fb7193827ffc4baE
	movq	%rax, 8(%rsp)
	movq	8(%rsp), %rdi
	callq	_ZN50_$LT$T$u20$as$u20$core..convert..Into$LT$U$GT$$GT$4into17h63e762b98f867993E
	movq	%rax, (%rsp)
	leaq	80(%rsp), %rdi
	movq	(%rsp), %rsi
	movq	24(%rsp), %rdx
	movq	16(%rsp), %rcx
	callq	_ZN62_$LT$alloc..alloc..Global$u20$as$u20$core..alloc..AllocRef$GT$7dealloc17h8f054606944b754bE
	addq	$104, %rsp
	.cfi_def_cfa_offset 8
	retq
.Lfunc_end237:
	.size	_ZN5alloc5alloc8box_free17h82f09ed964c2eff5E, .Lfunc_end237-_ZN5alloc5alloc8box_free17h82f09ed964c2eff5E
	.cfi_endproc

	.section	".text._ZN5alloc5boxed12Box$LT$T$GT$4leak17h0c34a233617660d1E","ax",@progbits
	.p2align	4, 0x90
	.type	_ZN5alloc5boxed12Box$LT$T$GT$4leak17h0c34a233617660d1E,@function
_ZN5alloc5boxed12Box$LT$T$GT$4leak17h0c34a233617660d1E:
	.cfi_startproc
	subq	$56, %rsp
	.cfi_def_cfa_offset 64
	movq	%rdi, 40(%rsp)
	movq	%rsi, 48(%rsp)
	movq	40(%rsp), %rax
	movq	48(%rsp), %rcx
	movq	%rcx, 32(%rsp)
	movq	%rax, 24(%rsp)
	leaq	24(%rsp), %rax
	movq	%rax, 16(%rsp)
	movq	16(%rsp), %rax
	movq	(%rax), %rdi
	movq	8(%rax), %rsi
	callq	_ZN4core3ptr6unique15Unique$LT$T$GT$6as_ptr17hdcaf622f9e33018aE
	movq	%rax, 8(%rsp)
	movq	%rdx, (%rsp)
	movq	8(%rsp), %rax
	movq	(%rsp), %rdx
	addq	$56, %rsp
	.cfi_def_cfa_offset 8
	retq
.Lfunc_end238:
	.size	_ZN5alloc5boxed12Box$LT$T$GT$4leak17h0c34a233617660d1E, .Lfunc_end238-_ZN5alloc5boxed12Box$LT$T$GT$4leak17h0c34a233617660d1E
	.cfi_endproc

	.section	".text._ZN5alloc5boxed12Box$LT$T$GT$4leak17h135fbf76bb4ff224E","ax",@progbits
	.p2align	4, 0x90
	.type	_ZN5alloc5boxed12Box$LT$T$GT$4leak17h135fbf76bb4ff224E,@function
_ZN5alloc5boxed12Box$LT$T$GT$4leak17h135fbf76bb4ff224E:
	.cfi_startproc
	subq	$56, %rsp
	.cfi_def_cfa_offset 64
	movq	%rdi, 40(%rsp)
	movq	%rsi, 48(%rsp)
	movq	40(%rsp), %rax
	movq	48(%rsp), %rcx
	movq	%rcx, 32(%rsp)
	movq	%rax, 24(%rsp)
	leaq	24(%rsp), %rax
	movq	%rax, 16(%rsp)
	movq	16(%rsp), %rax
	movq	(%rax), %rdi
	movq	8(%rax), %rsi
	callq	_ZN4core3ptr6unique15Unique$LT$T$GT$6as_ptr17h4d24d2f801baa204E
	movq	%rax, 8(%rsp)
	movq	%rdx, (%rsp)
	movq	8(%rsp), %rax
	movq	(%rsp), %rdx
	addq	$56, %rsp
	.cfi_def_cfa_offset 8
	retq
.Lfunc_end239:
	.size	_ZN5alloc5boxed12Box$LT$T$GT$4leak17h135fbf76bb4ff224E, .Lfunc_end239-_ZN5alloc5boxed12Box$LT$T$GT$4leak17h135fbf76bb4ff224E
	.cfi_endproc

	.section	".text._ZN5alloc5boxed12Box$LT$T$GT$8into_raw17h7d7d3023b204b8b6E","ax",@progbits
	.p2align	4, 0x90
	.type	_ZN5alloc5boxed12Box$LT$T$GT$8into_raw17h7d7d3023b204b8b6E,@function
_ZN5alloc5boxed12Box$LT$T$GT$8into_raw17h7d7d3023b204b8b6E:
	.cfi_startproc
	subq	$24, %rsp
	.cfi_def_cfa_offset 32
	callq	_ZN5alloc5boxed12Box$LT$T$GT$4leak17h135fbf76bb4ff224E
	movq	%rax, 16(%rsp)
	movq	%rdx, 8(%rsp)
	movq	16(%rsp), %rax
	movq	8(%rsp), %rdx
	addq	$24, %rsp
	.cfi_def_cfa_offset 8
	retq
.Lfunc_end240:
	.size	_ZN5alloc5boxed12Box$LT$T$GT$8into_raw17h7d7d3023b204b8b6E, .Lfunc_end240-_ZN5alloc5boxed12Box$LT$T$GT$8into_raw17h7d7d3023b204b8b6E
	.cfi_endproc

	.section	".text._ZN5alloc5boxed12Box$LT$T$GT$8into_raw17h96c271001ccd08b4E","ax",@progbits
	.p2align	4, 0x90
	.type	_ZN5alloc5boxed12Box$LT$T$GT$8into_raw17h96c271001ccd08b4E,@function
_ZN5alloc5boxed12Box$LT$T$GT$8into_raw17h96c271001ccd08b4E:
	.cfi_startproc
	subq	$24, %rsp
	.cfi_def_cfa_offset 32
	callq	_ZN5alloc5boxed12Box$LT$T$GT$4leak17h0c34a233617660d1E
	movq	%rax, 16(%rsp)
	movq	%rdx, 8(%rsp)
	movq	16(%rsp), %rax
	movq	8(%rsp), %rdx
	addq	$24, %rsp
	.cfi_def_cfa_offset 8
	retq
.Lfunc_end241:
	.size	_ZN5alloc5boxed12Box$LT$T$GT$8into_raw17h96c271001ccd08b4E, .Lfunc_end241-_ZN5alloc5boxed12Box$LT$T$GT$8into_raw17h96c271001ccd08b4E
	.cfi_endproc

	.section	".text._ZN5alloc5slice29_$LT$impl$u20$$u5b$T$u5d$$GT$6to_vec17h5d52fd3ea09d2591E","ax",@progbits
	.p2align	4, 0x90
	.type	_ZN5alloc5slice29_$LT$impl$u20$$u5b$T$u5d$$GT$6to_vec17h5d52fd3ea09d2591E,@function
_ZN5alloc5slice29_$LT$impl$u20$$u5b$T$u5d$$GT$6to_vec17h5d52fd3ea09d2591E:
	.cfi_startproc
	pushq	%rax
	.cfi_def_cfa_offset 16
	movq	%rdi, %rax
	movq	%rax, (%rsp)
	callq	_ZN5alloc5slice4hack6to_vec17hadd78dfa98d5a6d0E
	movq	(%rsp), %rax
	popq	%rcx
	.cfi_def_cfa_offset 8
	retq
.Lfunc_end242:
	.size	_ZN5alloc5slice29_$LT$impl$u20$$u5b$T$u5d$$GT$6to_vec17h5d52fd3ea09d2591E, .Lfunc_end242-_ZN5alloc5slice29_$LT$impl$u20$$u5b$T$u5d$$GT$6to_vec17h5d52fd3ea09d2591E
	.cfi_endproc

	.section	".text._ZN5alloc5slice29_$LT$impl$u20$$u5b$T$u5d$$GT$8into_vec17h5e9232959d067feeE","ax",@progbits
	.p2align	4, 0x90
	.type	_ZN5alloc5slice29_$LT$impl$u20$$u5b$T$u5d$$GT$8into_vec17h5e9232959d067feeE,@function
_ZN5alloc5slice29_$LT$impl$u20$$u5b$T$u5d$$GT$8into_vec17h5e9232959d067feeE:
	.cfi_startproc
	pushq	%rax
	.cfi_def_cfa_offset 16
	movq	%rdi, %rax
	movq	%rax, (%rsp)
	callq	_ZN5alloc5slice4hack8into_vec17h2e62d148f54aa243E
	movq	(%rsp), %rax
	popq	%rcx
	.cfi_def_cfa_offset 8
	retq
.Lfunc_end243:
	.size	_ZN5alloc5slice29_$LT$impl$u20$$u5b$T$u5d$$GT$8into_vec17h5e9232959d067feeE, .Lfunc_end243-_ZN5alloc5slice29_$LT$impl$u20$$u5b$T$u5d$$GT$8into_vec17h5e9232959d067feeE
	.cfi_endproc

	.section	.text._ZN5alloc5slice4hack6to_vec17hadd78dfa98d5a6d0E,"ax",@progbits
	.p2align	4, 0x90
	.type	_ZN5alloc5slice4hack6to_vec17hadd78dfa98d5a6d0E,@function
_ZN5alloc5slice4hack6to_vec17hadd78dfa98d5a6d0E:
.Lfunc_begin28:
	.cfi_startproc
	.cfi_personality 155, DW.ref.rust_eh_personality
	.cfi_lsda 27, .Lexception28
	subq	$56, %rsp
	.cfi_def_cfa_offset 64
	movq	%rdi, %rax
	movq	%rdi, 32(%rsp)
	movq	%rsi, %rdi
	movq	%rsi, 24(%rsp)
	movq	%rdx, %rsi
	movq	%rdx, 16(%rsp)
	movq	%rax, 8(%rsp)
	callq	_ZN4core5slice29_$LT$impl$u20$$u5b$T$u5d$$GT$3len17h8863da59ab28e3d6E
	movq	%rax, (%rsp)
	jmp	.LBB244_2
.LBB244_1:
	movq	40(%rsp), %rdi
	callq	_Unwind_Resume@PLT
	ud2
.LBB244_2:
	movq	32(%rsp), %rdi
	movq	(%rsp), %rsi
	callq	_ZN5alloc3vec12Vec$LT$T$GT$13with_capacity17hab40d6e2dbf2c3eaE
.Ltmp148:
	movq	32(%rsp), %rdi
	movq	24(%rsp), %rsi
	movq	16(%rsp), %rdx
	callq	_ZN5alloc3vec12Vec$LT$T$GT$17extend_from_slice17h4951ff97727d1b41E
.Ltmp149:
	jmp	.LBB244_4
.LBB244_4:
	movq	8(%rsp), %rax
	addq	$56, %rsp
	.cfi_def_cfa_offset 8
	retq
.LBB244_5:
	.cfi_def_cfa_offset 64
	movq	32(%rsp), %rdi
	callq	_ZN4core3ptr13drop_in_place17hda9642902dcaff7bE
	jmp	.LBB244_1
.LBB244_6:
.Ltmp150:
	movq	%rax, 40(%rsp)
	movl	%edx, 48(%rsp)
	jmp	.LBB244_5
.Lfunc_end244:
	.size	_ZN5alloc5slice4hack6to_vec17hadd78dfa98d5a6d0E, .Lfunc_end244-_ZN5alloc5slice4hack6to_vec17hadd78dfa98d5a6d0E
	.cfi_endproc
	.section	.gcc_except_table,"a",@progbits
	.p2align	2
GCC_except_table244:
.Lexception28:
	.byte	255
	.byte	255
	.byte	1
	.uleb128 .Lcst_end28-.Lcst_begin28
.Lcst_begin28:
	.uleb128 .Lfunc_begin28-.Lfunc_begin28
	.uleb128 .Ltmp148-.Lfunc_begin28
	.byte	0
	.byte	0
	.uleb128 .Ltmp148-.Lfunc_begin28
	.uleb128 .Ltmp149-.Ltmp148
	.uleb128 .Ltmp150-.Lfunc_begin28
	.byte	0
	.uleb128 .Ltmp149-.Lfunc_begin28
	.uleb128 .Lfunc_end244-.Ltmp149
	.byte	0
	.byte	0
.Lcst_end28:
	.p2align	2

	.section	.text._ZN5alloc5slice4hack8into_vec17h2e62d148f54aa243E,"ax",@progbits
	.p2align	4, 0x90
	.type	_ZN5alloc5slice4hack8into_vec17h2e62d148f54aa243E,@function
_ZN5alloc5slice4hack8into_vec17h2e62d148f54aa243E:
.Lfunc_begin29:
	.cfi_startproc
	.cfi_personality 155, DW.ref.rust_eh_personality
	.cfi_lsda 27, .Lexception29
	subq	$72, %rsp
	.cfi_def_cfa_offset 80
	movq	%rdi, %rax
	movq	%rsi, 32(%rsp)
	movq	%rdx, 40(%rsp)
	movb	$0, 55(%rsp)
	movb	$1, 55(%rsp)
	movq	32(%rsp), %rcx
	movq	40(%rsp), %rsi
.Ltmp151:
	movq	%rdi, 24(%rsp)
	movq	%rcx, %rdi
	movq	%rax, 16(%rsp)
	callq	_ZN4core5slice29_$LT$impl$u20$$u5b$T$u5d$$GT$3len17h248b721ed1f9e002E
.Ltmp152:
	movq	%rax, 8(%rsp)
	jmp	.LBB245_2
.LBB245_1:
	movq	56(%rsp), %rdi
	callq	_Unwind_Resume@PLT
	ud2
.LBB245_2:
	movb	$0, 55(%rsp)
	movq	32(%rsp), %rdi
	movq	40(%rsp), %rsi
.Ltmp153:
	callq	_ZN5alloc5boxed12Box$LT$T$GT$8into_raw17h96c271001ccd08b4E
.Ltmp154:
	movq	%rax, (%rsp)
	jmp	.LBB245_3
.LBB245_3:
.Ltmp155:
	movq	24(%rsp), %rdi
	movq	(%rsp), %rsi
	movq	8(%rsp), %rdx
	movq	8(%rsp), %rcx
	callq	_ZN5alloc3vec12Vec$LT$T$GT$14from_raw_parts17hd95899dd5a53902eE
.Ltmp156:
	jmp	.LBB245_4
.LBB245_4:
	movq	16(%rsp), %rax
	addq	$72, %rsp
	.cfi_def_cfa_offset 8
	retq
.LBB245_5:
	.cfi_def_cfa_offset 80
	movb	$0, 55(%rsp)
	leaq	32(%rsp), %rdi
	callq	_ZN4core3ptr13drop_in_place17h640fcf92a820f1d0E
	jmp	.LBB245_1
.LBB245_6:
	testb	$1, 55(%rsp)
	jne	.LBB245_5
	jmp	.LBB245_1
.LBB245_7:
.Ltmp157:
	movq	%rax, 56(%rsp)
	movl	%edx, 64(%rsp)
	jmp	.LBB245_6
.Lfunc_end245:
	.size	_ZN5alloc5slice4hack8into_vec17h2e62d148f54aa243E, .Lfunc_end245-_ZN5alloc5slice4hack8into_vec17h2e62d148f54aa243E
	.cfi_endproc
	.section	.gcc_except_table,"a",@progbits
	.p2align	2
GCC_except_table245:
.Lexception29:
	.byte	255
	.byte	255
	.byte	1
	.uleb128 .Lcst_end29-.Lcst_begin29
.Lcst_begin29:
	.uleb128 .Ltmp151-.Lfunc_begin29
	.uleb128 .Ltmp152-.Ltmp151
	.uleb128 .Ltmp157-.Lfunc_begin29
	.byte	0
	.uleb128 .Ltmp152-.Lfunc_begin29
	.uleb128 .Ltmp153-.Ltmp152
	.byte	0
	.byte	0
	.uleb128 .Ltmp153-.Lfunc_begin29
	.uleb128 .Ltmp156-.Ltmp153
	.uleb128 .Ltmp157-.Lfunc_begin29
	.byte	0
	.uleb128 .Ltmp156-.Lfunc_begin29
	.uleb128 .Lfunc_end245-.Ltmp156
	.byte	0
	.byte	0
.Lcst_end29:
	.p2align	2

	.section	".text._ZN5alloc5slice64_$LT$impl$u20$alloc..borrow..ToOwned$u20$for$u20$$u5b$T$u5d$$GT$8to_owned17h16ee259380bc5265E","ax",@progbits
	.p2align	4, 0x90
	.type	_ZN5alloc5slice64_$LT$impl$u20$alloc..borrow..ToOwned$u20$for$u20$$u5b$T$u5d$$GT$8to_owned17h16ee259380bc5265E,@function
_ZN5alloc5slice64_$LT$impl$u20$alloc..borrow..ToOwned$u20$for$u20$$u5b$T$u5d$$GT$8to_owned17h16ee259380bc5265E:
	.cfi_startproc
	pushq	%rax
	.cfi_def_cfa_offset 16
	movq	%rdi, %rax
	movq	%rax, (%rsp)
	callq	_ZN5alloc5slice29_$LT$impl$u20$$u5b$T$u5d$$GT$6to_vec17h5d52fd3ea09d2591E
	movq	(%rsp), %rax
	popq	%rcx
	.cfi_def_cfa_offset 8
	retq
.Lfunc_end246:
	.size	_ZN5alloc5slice64_$LT$impl$u20$alloc..borrow..ToOwned$u20$for$u20$$u5b$T$u5d$$GT$8to_owned17h16ee259380bc5265E, .Lfunc_end246-_ZN5alloc5slice64_$LT$impl$u20$alloc..borrow..ToOwned$u20$for$u20$$u5b$T$u5d$$GT$8to_owned17h16ee259380bc5265E
	.cfi_endproc

	.section	.text._ZN5alloc6string6String19from_utf8_unchecked17hf639b527bf41b7d7E,"ax",@progbits
	.p2align	4, 0x90
	.type	_ZN5alloc6string6String19from_utf8_unchecked17hf639b527bf41b7d7E,@function
_ZN5alloc6string6String19from_utf8_unchecked17hf639b527bf41b7d7E:
	.cfi_startproc
	subq	$24, %rsp
	.cfi_def_cfa_offset 32
	movq	%rdi, %rax
	movq	(%rsi), %rcx
	movq	%rcx, (%rsp)
	movq	8(%rsi), %rcx
	movq	%rcx, 8(%rsp)
	movq	16(%rsi), %rcx
	movq	%rcx, 16(%rsp)
	movq	(%rsp), %rcx
	movq	%rcx, (%rdi)
	movq	8(%rsp), %rcx
	movq	%rcx, 8(%rdi)
	movq	16(%rsp), %rcx
	movq	%rcx, 16(%rdi)
	addq	$24, %rsp
	.cfi_def_cfa_offset 8
	retq
.Lfunc_end247:
	.size	_ZN5alloc6string6String19from_utf8_unchecked17hf639b527bf41b7d7E, .Lfunc_end247-_ZN5alloc6string6String19from_utf8_unchecked17hf639b527bf41b7d7E
	.cfi_endproc

	.section	.text._ZN5alloc7raw_vec11alloc_guard17h98eec7ec560f2f0eE,"ax",@progbits
	.p2align	4, 0x90
	.type	_ZN5alloc7raw_vec11alloc_guard17h98eec7ec560f2f0eE,@function
_ZN5alloc7raw_vec11alloc_guard17h98eec7ec560f2f0eE:
	.cfi_startproc
	subq	$64, %rsp
	.cfi_def_cfa_offset 72
	movq	%rdi, %rax
	movq	$8, 56(%rsp)
	movq	56(%rsp), %rcx
	movq	%rsi, 24(%rsp)
	movq	%rdi, 16(%rsp)
	movq	%rax, 8(%rsp)
	movq	%rcx, (%rsp)
	jmp	.LBB248_5
.LBB248_1:
	movb	$1, 39(%rsp)
	jmp	.LBB248_4
.LBB248_2:
	movb	$0, 39(%rsp)
	jmp	.LBB248_4
.LBB248_3:
	movabsq	$9223372036854775807, %rax
	movq	24(%rsp), %rcx
	cmpq	%rax, %rcx
	ja	.LBB248_1
	jmp	.LBB248_2
.LBB248_4:
	testb	$1, 39(%rsp)
	jne	.LBB248_7
	jmp	.LBB248_6
.LBB248_5:
	movq	(%rsp), %rax
	cmpq	$8, %rax
	jb	.LBB248_3
	jmp	.LBB248_2
.LBB248_6:
	movq	16(%rsp), %rax
	movq	$0, (%rax)
	jmp	.LBB248_8
.LBB248_7:
	movq	$0, 48(%rsp)
	movq	40(%rsp), %rax
	movq	48(%rsp), %rcx
	movq	16(%rsp), %rdx
	movq	%rax, 8(%rdx)
	movq	%rcx, 16(%rdx)
	movq	$1, (%rdx)
.LBB248_8:
	movq	8(%rsp), %rax
	addq	$64, %rsp
	.cfi_def_cfa_offset 8
	retq
.Lfunc_end248:
	.size	_ZN5alloc7raw_vec11alloc_guard17h98eec7ec560f2f0eE, .Lfunc_end248-_ZN5alloc7raw_vec11alloc_guard17h98eec7ec560f2f0eE
	.cfi_endproc

	.section	.text._ZN5alloc7raw_vec11finish_grow17hdda883d1e1f5cb80E,"ax",@progbits
	.p2align	4, 0x90
	.type	_ZN5alloc7raw_vec11finish_grow17hdda883d1e1f5cb80E,@function
_ZN5alloc7raw_vec11finish_grow17hdda883d1e1f5cb80E:
	.cfi_startproc
	subq	$328, %rsp
	.cfi_def_cfa_offset 336
	movq	%rdi, %rax
	andb	$1, %cl
	movb	%cl, 135(%rsp)
	leaq	176(%rsp), %r10
	movq	%rdi, 120(%rsp)
	movq	%r10, %rdi
	movq	%r9, 112(%rsp)
	movq	%r8, 104(%rsp)
	movq	%rax, 96(%rsp)
	callq	_ZN4core6result19Result$LT$T$C$E$GT$7map_err17hd94145188becba37E
	leaq	152(%rsp), %rdi
	leaq	176(%rsp), %rsi
	callq	_ZN73_$LT$core..result..Result$LT$T$C$E$GT$$u20$as$u20$core..ops..try..Try$GT$11into_result17h83b34ce8b268d52cE
	movq	152(%rsp), %rax
	testq	%rax, %rax
	je	.LBB249_3
	jmp	.LBB249_34
.LBB249_34:
	jmp	.LBB249_5
.LBB249_3:
	movq	160(%rsp), %rax
	movq	168(%rsp), %rcx
	movq	%rax, 136(%rsp)
	movq	%rcx, 144(%rsp)
	leaq	136(%rsp), %rdi
	callq	_ZN4core5alloc6layout6Layout4size17hb929b93d984b458aE
	movq	%rax, 88(%rsp)
	jmp	.LBB249_10
	.cfi_def_cfa_offset 8
	ud2
.LBB249_5:
	.cfi_def_cfa_offset 336
	movq	160(%rsp), %rdi
	movq	168(%rsp), %rsi
	callq	_ZN50_$LT$T$u20$as$u20$core..convert..From$LT$T$GT$$GT$4from17h7c2616d580d495a1E
	movq	%rax, 80(%rsp)
	movq	%rdx, 72(%rsp)
	jmp	.LBB249_7
.LBB249_6:
	movq	96(%rsp), %rax
	addq	$328, %rsp
	.cfi_def_cfa_offset 8
	retq
.LBB249_7:
	.cfi_def_cfa_offset 336
	movq	120(%rsp), %rdi
	movq	80(%rsp), %rsi
	movq	72(%rsp), %rdx
	callq	_ZN73_$LT$core..result..Result$LT$T$C$E$GT$$u20$as$u20$core..ops..try..Try$GT$10from_error17h37726e6d8e53da16E
	jmp	.LBB249_9
.LBB249_9:
	jmp	.LBB249_6
.LBB249_10:
	leaq	232(%rsp), %rdi
	movq	88(%rsp), %rsi
	callq	_ZN5alloc7raw_vec11alloc_guard17h98eec7ec560f2f0eE
	leaq	208(%rsp), %rdi
	leaq	232(%rsp), %rsi
	callq	_ZN73_$LT$core..result..Result$LT$T$C$E$GT$$u20$as$u20$core..ops..try..Try$GT$11into_result17hb3cc0b421d29e236E
	movq	208(%rsp), %rax
	testq	%rax, %rax
	je	.LBB249_13
	jmp	.LBB249_35
.LBB249_35:
	jmp	.LBB249_15
.LBB249_13:
	xorl	%eax, %eax
	movl	%eax, %ecx
	movq	104(%rsp), %rdx
	cmpq	$0, (%rdx)
	movl	$1, %esi
	cmovbeq	%rcx, %rsi
	cmpq	$1, %rsi
	je	.LBB249_19
	jmp	.LBB249_18
	.cfi_def_cfa_offset 8
	ud2
.LBB249_15:
	.cfi_def_cfa_offset 336
	movq	216(%rsp), %rdi
	movq	224(%rsp), %rsi
	callq	_ZN50_$LT$T$u20$as$u20$core..convert..From$LT$T$GT$$GT$4from17h7c2616d580d495a1E
	movq	%rax, 64(%rsp)
	movq	%rdx, 56(%rsp)
	movq	120(%rsp), %rdi
	movq	64(%rsp), %rsi
	movq	56(%rsp), %rdx
	callq	_ZN73_$LT$core..result..Result$LT$T$C$E$GT$$u20$as$u20$core..ops..try..Try$GT$10from_error17h37726e6d8e53da16E
	jmp	.LBB249_9
.LBB249_18:
	movzbl	135(%rsp), %eax
	movl	%eax, %ecx
	testb	$1, %cl
	je	.LBB249_24
	jmp	.LBB249_36
.LBB249_36:
	jmp	.LBB249_22
.LBB249_19:
	movq	104(%rsp), %rax
	movq	(%rax), %rsi
	movq	8(%rax), %rdx
	movq	16(%rax), %rcx
	leaq	136(%rsp), %rdi
	movq	%rsi, 48(%rsp)
	movq	%rdx, 40(%rsp)
	movq	%rcx, 32(%rsp)
	callq	_ZN4core5alloc6layout6Layout4size17hb929b93d984b458aE
	movq	%rax, 24(%rsp)
	movzbl	135(%rsp), %r9d
	movq	%rsp, %rax
	movl	$0, (%rax)
